(dp1
S'output'
p2
S"<type 'exceptions.IndexError'> tuple index out of range"
p3
sS'layer'
p4
S'/home/jbtte/web2py/applications/tjdf/controllers/default.py'
p5
sS'code'
p6
S'# -*- coding: latin1 -*-\n\n#@auth.requires_login()\ndef index():\n    ## Creates a list of the last 5 files correctly inputed\n    user = (db.processo.user == auth.user_id)\n    myset = db(user)\n    last = myset.select(db.processo.ALL, orderby=~db.processo.id, limitby=(0, 5))\n\n    ## Shows a statistic of the files inputed in the month\n    relatora = (db.processo.competencia == "Relatora")\n    session.frelatora=db(relatora).count()\n    revisora = (db.processo.competencia == "Revisora")\n    session.frevisora=db(revisora).count()\n    session.ftotal = session.frelatora+session.frevisora\n\n    return dict(rows=last)\n\ndef cadastro():\n\n    form = SQLFORM.factory(Field(\'processo\', label=T(\'Numero do Processo: \')))\n\n    if form.process().accepted:\n        import tj\n        processo = tj.get_page(form.vars.processo)\n        session.reu = processo[0].decode("latin1", "ignore")\n        session.classe = processo[1].decode("latin1", "ignore")\n        session.numero = processo[2]\n        session.crime = processo[3].decode("latin1", "ignore")\n        session.competencia = processo[4]\n        redirect(URL(\'cadastro_final\'))\n\n    return dict(form=form)\n\n\ndef cadastro_final():\n\n    ##creating the submission form and hidding the date and user, which are filled in automatically\n    db.processo.criado_em.writable = False\n    db.processo.criado_em.readable = False\n    db.processo.user.writable = False\n    db.processo.user.readable = False\n    form = SQLFORM(db.processo)\n    ##pre-populating the form with the info obtained through get_page()\n    form.vars.classe = session.classe.encode("utf8")\n    form.vars.reu = session.reu.encode("utf8")\n    form.vars.numero = session.numero\n    form.vars.competencia = session.competencia.encode("utf8")\n    form.vars.crime = session.crime.encode("utf8")\n\n    if form.process().accepted:\n       session.flash = \'form accepted\'\n       redirect(URL(\'index\'))\n\n    return dict(form=form)\n\ndef pesquisa():\n    form = SQLFORM.factory(Field(\'reu\'),\n    Field(\'numero\'),\n    Field(\'competencia\'),\n    Field(\'Data_inicial\', \'date\'),\n    Field(\'Data_final\', \'date\', default = request.now))\n\n    if form.process().accepted:\n\n        if form.vars.numero!="":\n            numero = db.processo.numero.contains(form.vars.numero)\n            query = db(numero)\n            session.rows = query.select()\n            redirect(URL(\'result\'))\n\n        elif form.vars.reu != "":\n            reu = db.processo.reu.contains(form.vars.reu)\n            query = db(reu)\n            session.rows = query.select()\n            redirect(URL(\'result\'))\n\n\n        elif form.vars.competencia != "":\n            competencia = (db.processo.competencia == form.vars.competencia)\n            query = db(competencia)\n            session.rows = query.select()\n            redirect(URL(\'result\'))\n\n\n        elif (form.vars.Data_inicial!="") or (form.vars.Data_final!=request.now):\n            import datetime\n            from datetime import date\n            delta = datetime.timedelta(days=1)\n            session.inicial = form.vars.Data_inicial or (request.now-(60*delta))\n            session.final = form.vars.Data_final or request.now\n            data = (db.processo.criado_em >= session.inicial-delta) & (db.processo.criado_em <= session.final+delta)\n            query = db(data)\n            session.rows = query.select()\n            redirect(URL(\'result\'))\n\n    return dict(form=form)\n\ndef result():\n    return dict(rows=session.rows)\n    \ndef escolhe_processo():\n    ##import library to do http requests:\n    import urllib\n\n    ##import beautiful soup parser:\n    from bs4 import BeautifulSoup\n    \n    soup = session.soup\n    reu_one = soup.find(id="autor_1_1_1")["value"].encode(\'latin1\')\n    classe_one = soup.find(id="classeProcessual_1_1_1")["value"].encode(\'latin1\')\n\n    if soup.find_all(id="classeProcessual_1_1_2")!=[]:\n        reu_two = soup.find(id="autor_1_1_2")["value"].encode(\'latin1\')\n        classe_two = soup.find(id="classeProcessual_1_1_2")["value"].encode(\'latin1\')\n\n    else:\n        reu2 = soup.find(id="autor_1_2_1")["value"].encode(\'latin1\')\n        classe2 = soup.find(id="classeProcessual_1_2_1")["value"].encode(\'latin1\')\n    \n\n    \n    return dict()\n    \n\ndef user():\n    """\n    exposes:\n    http://..../[app]/default/user/login\n    http://..../[app]/default/user/logout\n    http://..../[app]/default/user/register\n    http://..../[app]/default/user/profile\n    http://..../[app]/default/user/retrieve_password\n    http://..../[app]/default/user/change_password\n    http://..../[app]/default/user/manage_users (requires membership in\n    use @auth.requires_login()\n        @auth.requires_membership(\'group name\')\n        @auth.requires_permission(\'read\',\'table name\',record_id)\n    to decorate functions that need access control\n    """\n    return dict(form=auth())\n\nresponse._vars=response._caller(cadastro)\n'
p7
sS'snapshot'
p8
(dp9
S'exception'
p10
(dp11
S'__hash__'
p12
S"<method-wrapper '__hash__' of exceptions.IndexError object>"
p13
sS'__setattr__'
p14
S"<method-wrapper '__setattr__' of exceptions.IndexError object>"
p15
sS'__reduce_ex__'
p16
S'<built-in method __reduce_ex__ of exceptions.IndexError object>'
p17
sS'__getslice__'
p18
S"<method-wrapper '__getslice__' of exceptions.IndexError object>"
p19
sS'__getitem__'
p20
S"<method-wrapper '__getitem__' of exceptions.IndexError object>"
p21
sS'__setstate__'
p22
S'<built-in method __setstate__ of exceptions.IndexError object>'
p23
sS'args'
p24
S"('tuple index out of range',)"
p25
sS'__reduce__'
p26
S'<built-in method __reduce__ of exceptions.IndexError object>'
p27
sS'__str__'
p28
S"<method-wrapper '__str__' of exceptions.IndexError object>"
p29
sS'__format__'
p30
S'<built-in method __format__ of exceptions.IndexError object>'
p31
sS'__getattribute__'
p32
S"<method-wrapper '__getattribute__' of exceptions.IndexError object>"
p33
sS'__class__'
p34
S"<type 'exceptions.IndexError'>"
p35
sS'__unicode__'
p36
S'<built-in method __unicode__ of exceptions.IndexError object>'
p37
sS'__delattr__'
p38
S"<method-wrapper '__delattr__' of exceptions.IndexError object>"
p39
sS'__subclasshook__'
p40
S'<built-in method __subclasshook__ of type object>'
p41
sS'__repr__'
p42
S"<method-wrapper '__repr__' of exceptions.IndexError object>"
p43
sS'__dict__'
p44
S'{}'
p45
sS'__sizeof__'
p46
S'<built-in method __sizeof__ of exceptions.IndexError object>'
p47
sS'__doc__'
p48
S"'Sequence index out of range.'"
p49
sS'__init__'
p50
S"<method-wrapper '__init__' of exceptions.IndexError object>"
p51
sS'__new__'
p52
S'<built-in method __new__ of type object>'
p53
ssS'evalue'
p54
S'tuple index out of range'
p55
sS'request'
p56
cgluon.html
XML_unpickle
p57
(S'swT\x00\x00<div><table><tr><td style="font-weight:bold;vertical-align:top">ajax</td><td valign="top">:</td><td><div>False</div></td></tr><tr><td style="font-weight:bold;vertical-align:top">application</td><td valign="top">:</td><td><div>tjdf</div></td></tr><tr><td style="font-weight:bold;vertical-align:top">args</td><td valign="top">:</td><td><div><table></table></div></td></tr><tr><td style="font-weight:bold;vertical-align:top">body</td><td valign="top">:</td><td><div>&lt;open file &#x27;&lt;fdopen&gt;&#x27;, mode &#x27;w+b&#x27; at 0x422da50&gt;</div></td></tr><tr><td style="font-weight:bold;vertical-align:top">cid</td><td valign="top">:</td><td><div>None</div></td></tr><tr><td style="font-weight:bold;vertical-align:top">client</td><td valign="top">:</td><td><div>189.123.0.86</div></td></tr><tr><td style="font-weight:bold;vertical-align:top">controller</td><td valign="top">:</td><td><div>default</div></td></tr><tr><td style="font-weight:bold;vertical-align:top">cookies</td><td valign="top">:</td><td><div><table><tr><td style="font-weight:bold;vertical-align:top">session_id_admin</td><td valign="top">:</td><td><div>189.123.0.86-d4fe4048-1bb7-4677-9d1c-3952607dbb39<table><tr><td style="font-weight:bold;vertical-align:top">comment</td><td valign="top">:</td><td><div></div></td></tr><tr><td style="font-weight:bold;vertical-align:top">domain</td><td valign="top">:</td><td><div></div></td></tr><tr><td style="font-weight:bold;vertical-align:top">expires</td><td valign="top">:</td><td><div></div></td></tr><tr><td style="font-weight:bold;vertical-align:top">httponly</td><td valign="top">:</td><td><div></div></td></tr><tr><td style="font-weight:bold;vertical-align:top">max-age</td><td valign="top">:</td><td><div></div></td></tr><tr><td style="font-weight:bold;vertical-align:top">path</td><td valign="top">:</td><td><div></div></td></tr><tr><td style="font-weight:bold;vertical-align:top">secure</td><td valign="top">:</td><td><div></div></td></tr><tr><td style="font-weight:bold;vertical-align:top">version</td><td valign="top">:</td><td><div></div></td></tr></table></div></td></tr><tr><td style="font-weight:bold;vertical-align:top">session_id_cifras</td><td valign="top">:</td><td><div>189.123.0.86-7076c83f-8137-4d9f-a26f-e3500618287b<table><tr><td style="font-weight:bold;vertical-align:top">comment</td><td valign="top">:</td><td><div></div></td></tr><tr><td style="font-weight:bold;vertical-align:top">domain</td><td valign="top">:</td><td><div></div></td></tr><tr><td style="font-weight:bold;vertical-align:top">expires</td><td valign="top">:</td><td><div></div></td></tr><tr><td style="font-weight:bold;vertical-align:top">httponly</td><td valign="top">:</td><td><div></div></td></tr><tr><td style="font-weight:bold;vertical-align:top">max-age</td><td valign="top">:</td><td><div></div></td></tr><tr><td style="font-weight:bold;vertical-align:top">path</td><td valign="top">:</td><td><div></div></td></tr><tr><td style="font-weight:bold;vertical-align:top">secure</td><td valign="top">:</td><td><div></div></td></tr><tr><td style="font-weight:bold;vertical-align:top">version</td><td valign="top">:</td><td><div></div></td></tr></table></div></td></tr><tr><td style="font-weight:bold;vertical-align:top">session_id_tjdf</td><td valign="top">:</td><td><div>189.123.0.86-37d5fcf1-6497-452f-9ad7-111f242b4fcb<table><tr><td style="font-weight:bold;vertical-align:top">comment</td><td valign="top">:</td><td><div></div></td></tr><tr><td style="font-weight:bold;vertical-align:top">domain</td><td valign="top">:</td><td><div></div></td></tr><tr><td style="font-weight:bold;vertical-align:top">expires</td><td valign="top">:</td><td><div></div></td></tr><tr><td style="font-weight:bold;vertical-align:top">httponly</td><td valign="top">:</td><td><div></div></td></tr><tr><td style="font-weight:bold;vertical-align:top">max-age</td><td valign="top">:</td><td><div></div></td></tr><tr><td style="font-weight:bold;vertical-align:top">path</td><td valign="top">:</td><td><div></div></td></tr><tr><td style="font-weight:bold;vertical-align:top">secure</td><td valign="top">:</td><td><div></div></td></tr><tr><td style="font-weight:bold;vertical-align:top">version</td><td valign="top">:</td><td><div></div></td></tr></table></div></td></tr></table></div></td></tr><tr><td style="font-weight:bold;vertical-align:top">env</td><td valign="top">:</td><td><div><table><tr><td style="font-weight:bold;vertical-align:top">app_folders</td><td valign="top">:</td><td><div>set([&#x27;/home/jbtte/web2py/applications/admin/&#x27;, &#x27;/home/jbtte/web2py/applications/tjdf/&#x27;])</div></td></tr><tr><td style="font-weight:bold;vertical-align:top">applications_parent</td><td valign="top">:</td><td><div>/home/jbtte/web2py</div></td></tr><tr><td style="font-weight:bold;vertical-align:top">content_length</td><td valign="top">:</td><td><div>395</div></td></tr><tr><td style="font-weight:bold;vertical-align:top">content_type</td><td valign="top">:</td><td><div>multipart/form-data; boundary=----WebKitFormBoundaryBEMSnaXz3LEysLvn</div></td></tr><tr><td style="font-weight:bold;vertical-align:top">db_sessions</td><td valign="top">:</td><td><div>set([])</div></td></tr><tr><td style="font-weight:bold;vertical-align:top">debugging</td><td valign="top">:</td><td><div>True</div></td></tr><tr><td style="font-weight:bold;vertical-align:top">document_root</td><td valign="top">:</td><td><div>/usr/share/nginx/html</div></td></tr><tr><td style="font-weight:bold;vertical-align:top">gluon_parent</td><td valign="top">:</td><td><div>/home/jbtte/web2py</div></td></tr><tr><td style="font-weight:bold;vertical-align:top">http_accept</td><td valign="top">:</td><td><div>text/html,application/xhtml+xml,application/xml;q=0.9,image/webp,*/*;q=0.8</div></td></tr><tr><td style="font-weight:bold;vertical-align:top">http_accept_encoding</td><td valign="top">:</td><td><div>gzip,deflate,sdch</div></td></tr><tr><td style="font-weight:bold;vertical-align:top">http_accept_language</td><td valign="top">:</td><td><div>pt-BR,pt;q=0.8,en-US;q=0.6,en;q=0.4</div></td></tr><tr><td style="font-weight:bold;vertical-align:top">http_connection</td><td valign="top">:</td><td><div>close</div></td></tr><tr><td style="font-weight:bold;vertical-align:top">http_content_length</td><td valign="top">:</td><td><div>395</div></td></tr><tr><td style="font-weight:bold;vertical-align:top">http_content_type</td><td valign="top">:</td><td><div>multipart/form-data; boundary=----WebKitFormBoundaryBEMSnaXz3LEysLvn</div></td></tr><tr><td style="font-weight:bold;vertical-align:top">http_cookie</td><td valign="top">:</td><td><div>__utma=133430031.682321608.1379258277.1382064277.1382104541.26; __utmc=133430031; __utmz=133430031.1380998005.13.6.utmcsr=google|utmccn=(organic)|utmcmd=organic|utmctr=(not%20provided); session_id_cifras=189.123.0.86-7076c83f-8137-4d9f-a26f-e3500618287b; session_id_admin=189.123.0.86-d4fe4048-1bb7-4677-9d1c-3952607dbb39; session_id_tjdf=189.123.0.86-37d5fcf1-6497-452f-9ad7-111f242b4fcb</div></td></tr><tr><td style="font-weight:bold;vertical-align:top">http_host</td><td valign="top">:</td><td><div>jbtte.pythonanywhere.com</div></td></tr><tr><td style="font-weight:bold;vertical-align:top">http_origin</td><td valign="top">:</td><td><div>https://jbtte.pythonanywhere.com</div></td></tr><tr><td style="font-weight:bold;vertical-align:top">http_referer</td><td valign="top">:</td><td><div>https://jbtte.pythonanywhere.com/tjdf/default/cadastro</div></td></tr><tr><td style="font-weight:bold;vertical-align:top">http_user_agent</td><td valign="top">:</td><td><div>Mozilla/5.0 (Macintosh; Intel Mac OS X 10_8_5) AppleWebKit/537.36 (KHTML, like Gecko) Chrome/30.0.1599.101 Safari/537.36</div></td></tr><tr><td style="font-weight:bold;vertical-align:top">http_x_forwarded_for</td><td valign="top">:</td><td><div>189.123.0.86</div></td></tr><tr><td style="font-weight:bold;vertical-align:top">http_x_real_ip</td><td valign="top">:</td><td><div>189.123.0.86</div></td></tr><tr><td style="font-weight:bold;vertical-align:top">https</td><td valign="top">:</td><td><div>on</div></td></tr><tr><td style="font-weight:bold;vertical-align:top">is_jython</td><td valign="top">:</td><td><div>False</div></td></tr><tr><td style="font-weight:bold;vertical-align:top">is_pypy</td><td valign="top">:</td><td><div>False</div></td></tr><tr><td style="font-weight:bold;vertical-align:top">local_hosts</td><td valign="top">:</td><td><div><table><tr><td><div>harry-liveweb2</div></td></tr><tr><td><div>jbtte.pythonanywhere.com</div></td></tr><tr><td><div>::1</div></td></tr><tr><td><div>::ffff:127.0.0.1</div></td></tr><tr><td><div>50.19.109.98</div></td></tr><tr><td><div>127.0.0.1</div></td></tr><tr><td><div>localhost</div></td></tr></table></div></td></tr><tr><td style="font-weight:bold;vertical-align:top">path_info</td><td valign="top">:</td><td><div>/tjdf/default/cadastro</div></td></tr><tr><td style="font-weight:bold;vertical-align:top">query_string</td><td valign="top">:</td><td><div></div></td></tr><tr><td style="font-weight:bold;vertical-align:top">remote_addr</td><td valign="top">:</td><td><div>10.123.14.9</div></td></tr><tr><td style="font-weight:bold;vertical-align:top">remote_port</td><td valign="top">:</td><td><div>35577</div></td></tr><tr><td style="font-weight:bold;vertical-align:top">request_method</td><td valign="top">:</td><td><div>POST</div></td></tr><tr><td style="font-weight:bold;vertical-align:top">request_uri</td><td valign="top">:</td><td><div>/tjdf/default/cadastro</div></td></tr><tr><td style="font-weight:bold;vertical-align:top">script_name</td><td valign="top">:</td><td><div></div></td></tr><tr><td style="font-weight:bold;vertical-align:top">server_name</td><td valign="top">:</td><td><div>jbtte.pythonanywhere.com</div></td></tr><tr><td style="font-weight:bold;vertical-align:top">server_port</td><td valign="top">:</td><td><div>443</div></td></tr><tr><td style="font-weight:bold;vertical-align:top">server_protocol</td><td valign="top">:</td><td><div>HTTP/1.1</div></td></tr><tr><td style="font-weight:bold;vertical-align:top">uwsgi_node</td><td valign="top">:</td><td><div>harry-liveweb2</div></td></tr><tr><td style="font-weight:bold;vertical-align:top">uwsgi_version</td><td valign="top">:</td><td><div>1.9.16</div></td></tr><tr><td style="font-weight:bold;vertical-align:top">web2py_path</td><td valign="top">:</td><td><div>/home/jbtte/web2py</div></td></tr><tr><td style="font-weight:bold;vertical-align:top">web2py_version</td><td valign="top">:</td><td><div>2.5.1-stable+timestamp.2013.06.06.15.39.19</div></td></tr><tr><td style="font-weight:bold;vertical-align:top">wsgi_errors</td><td valign="top">:</td><td><div>&lt;uwsgi_file__bin_user_wsgi_wrapper.ErrorLogWrapper object at 0x332e610&gt;</div></td></tr><tr><td style="font-weight:bold;vertical-align:top">wsgi_file_wrapper</td><td valign="top">:</td><td><div>&lt;built-in function uwsgi_sendfile&gt;</div></td></tr><tr><td style="font-weight:bold;vertical-align:top">wsgi_input</td><td valign="top">:</td><td><div>&lt;uwsgi._Input object at 0x2a3c330&gt;</div></td></tr><tr><td style="font-weight:bold;vertical-align:top">wsgi_multiprocess</td><td valign="top">:</td><td><div>True</div></td></tr><tr><td style="font-weight:bold;vertical-align:top">wsgi_multithread</td><td valign="top">:</td><td><div>False</div></td></tr><tr><td style="font-weight:bold;vertical-align:top">wsgi_run_once</td><td valign="top">:</td><td><div>False</div></td></tr><tr><td style="font-weight:bold;vertical-align:top">wsgi_url_scheme</td><td valign="top">:</td><td><div>https</div></td></tr><tr><td style="font-weight:bold;vertical-align:top">wsgi_version</td><td valign="top">:</td><td><div><table><tr><td><div>1</div></td></tr><tr><td><div>0</div></td></tr></table></div></td></tr></table></div></td></tr><tr><td style="font-weight:bold;vertical-align:top">extension</td><td valign="top">:</td><td><div>html</div></td></tr><tr><td style="font-weight:bold;vertical-align:top">folder</td><td valign="top">:</td><td><div>/home/jbtte/web2py/applications/tjdf/</div></td></tr><tr><td style="font-weight:bold;vertical-align:top">function</td><td valign="top">:</td><td><div>cadastro</div></td></tr><tr><td style="font-weight:bold;vertical-align:top">get_vars</td><td valign="top">:</td><td><div><table></table></div></td></tr><tr><td style="font-weight:bold;vertical-align:top">global_settings</td><td valign="top">:</td><td><div><table><tr><td style="font-weight:bold;vertical-align:top">app_folders</td><td valign="top">:</td><td><div>set([&#x27;/home/jbtte/web2py/applications/admin/&#x27;, &#x27;/home/jbtte/web2py/applications/tjdf/&#x27;])</div></td></tr><tr><td style="font-weight:bold;vertical-align:top">applications_parent</td><td valign="top">:</td><td><div>/home/jbtte/web2py</div></td></tr><tr><td style="font-weight:bold;vertical-align:top">db_sessions</td><td valign="top">:</td><td><div>set([])</div></td></tr><tr><td style="font-weight:bold;vertical-align:top">debugging</td><td valign="top">:</td><td><div>True</div></td></tr><tr><td style="font-weight:bold;vertical-align:top">gluon_parent</td><td valign="top">:</td><td><div>/home/jbtte/web2py</div></td></tr><tr><td style="font-weight:bold;vertical-align:top">is_jython</td><td valign="top">:</td><td><div>False</div></td></tr><tr><td style="font-weight:bold;vertical-align:top">is_pypy</td><td valign="top">:</td><td><div>False</div></td></tr><tr><td style="font-weight:bold;vertical-align:top">local_hosts</td><td valign="top">:</td><td><div><table><tr><td><div>harry-liveweb2</div></td></tr><tr><td><div>jbtte.pythonanywhere.com</div></td></tr><tr><td><div>::1</div></td></tr><tr><td><div>::ffff:127.0.0.1</div></td></tr><tr><td><div>50.19.109.98</div></td></tr><tr><td><div>127.0.0.1</div></td></tr><tr><td><div>localhost</div></td></tr></table></div></td></tr><tr><td style="font-weight:bold;vertical-align:top">web2py_version</td><td valign="top">:</td><td><div>2.5.1-stable+timestamp.2013.06.06.15.39.19</div></td></tr></table></div></td></tr><tr><td style="font-weight:bold;vertical-align:top">is_https</td><td valign="top">:</td><td><div>True</div></td></tr><tr><td style="font-weight:bold;vertical-align:top">is_local</td><td valign="top">:</td><td><div>False</div></td></tr><tr><td style="font-weight:bold;vertical-align:top">is_restful</td><td valign="top">:</td><td><div>False</div></td></tr><tr><td style="font-weight:bold;vertical-align:top">now</td><td valign="top">:</td><td><div>datetime.datetime(2013, 10, 19, 21, 31, 50, 761633)</div></td></tr><tr><td style="font-weight:bold;vertical-align:top">post_vars</td><td valign="top">:</td><td><div><table><tr><td style="font-weight:bold;vertical-align:top">processo</td><td valign="top">:</td><td><div>20111210021073</div></td></tr></table></div></td></tr><tr><td style="font-weight:bold;vertical-align:top">raw_args</td><td valign="top">:</td><td><div></div></td></tr><tr><td style="font-weight:bold;vertical-align:top">raw_extension</td><td valign="top">:</td><td><div>None</div></td></tr><tr><td style="font-weight:bold;vertical-align:top">url</td><td valign="top">:</td><td><div>/tjdf/default/cadastro</div></td></tr><tr><td style="font-weight:bold;vertical-align:top">utcnow</td><td valign="top">:</td><td><div>datetime.datetime(2013, 10, 19, 21, 31, 50, 761655)</div></td></tr><tr><td style="font-weight:bold;vertical-align:top">uuid</td><td valign="top">:</td><td><div>tjdf/189.123.0.86.2013-10-19.21-31-50.89c212f7-4d83-4843-8f23-9be90510e3bf</div></td></tr><tr><td style="font-weight:bold;vertical-align:top">vars</td><td valign="top">:</td><td><div><table><tr><td style="font-weight:bold;vertical-align:top">processo</td><td valign="top">:</td><td><div>20111210021073</div></td></tr></table></div></td></tr><tr><td style="font-weight:bold;vertical-align:top">wsgi</td><td valign="top">:</td><td><div><table><tr><td style="font-weight:bold;vertical-align:top">environ</td><td valign="top">:</td><td><div><table><tr><td style="font-weight:bold;vertical-align:top">CONTENT_LENGTH</td><td valign="top">:</td><td><div>395</div></td></tr><tr><td style="font-weight:bold;vertical-align:top">CONTENT_TYPE</td><td valign="top">:</td><td><div>multipart/form-data; boundary=----WebKitFormBoundaryBEMSnaXz3LEysLvn</div></td></tr><tr><td style="font-weight:bold;vertical-align:top">DOCUMENT_ROOT</td><td valign="top">:</td><td><div>/usr/share/nginx/html</div></td></tr><tr><td style="font-weight:bold;vertical-align:top">HTTPS</td><td valign="top">:</td><td><div>on</div></td></tr><tr><td style="font-weight:bold;vertical-align:top">HTTP_ACCEPT</td><td valign="top">:</td><td><div>text/html,application/xhtml+xml,application/xml;q=0.9,image/webp,*/*;q=0.8</div></td></tr><tr><td style="font-weight:bold;vertical-align:top">HTTP_ACCEPT_ENCODING</td><td valign="top">:</td><td><div>gzip,deflate,sdch</div></td></tr><tr><td style="font-weight:bold;vertical-align:top">HTTP_ACCEPT_LANGUAGE</td><td valign="top">:</td><td><div>pt-BR,pt;q=0.8,en-US;q=0.6,en;q=0.4</div></td></tr><tr><td style="font-weight:bold;vertical-align:top">HTTP_CONNECTION</td><td valign="top">:</td><td><div>close</div></td></tr><tr><td style="font-weight:bold;vertical-align:top">HTTP_CONTENT_LENGTH</td><td valign="top">:</td><td><div>395</div></td></tr><tr><td style="font-weight:bold;vertical-align:top">HTTP_CONTENT_TYPE</td><td valign="top">:</td><td><div>multipart/form-data; boundary=----WebKitFormBoundaryBEMSnaXz3LEysLvn</div></td></tr><tr><td style="font-weight:bold;vertical-align:top">HTTP_COOKIE</td><td valign="top">:</td><td><div>__utma=133430031.682321608.1379258277.1382064277.1382104541.26; __utmc=133430031; __utmz=133430031.1380998005.13.6.utmcsr=google|utmccn=(organic)|utmcmd=organic|utmctr=(not%20provided); session_id_cifras=189.123.0.86-7076c83f-8137-4d9f-a26f-e3500618287b; session_id_admin=189.123.0.86-d4fe4048-1bb7-4677-9d1c-3952607dbb39; session_id_tjdf=189.123.0.86-37d5fcf1-6497-452f-9ad7-111f242b4fcb</div></td></tr><tr><td style="font-weight:bold;vertical-align:top">HTTP_HOST</td><td valign="top">:</td><td><div>jbtte.pythonanywhere.com</div></td></tr><tr><td style="font-weight:bold;vertical-align:top">HTTP_ORIGIN</td><td valign="top">:</td><td><div>https://jbtte.pythonanywhere.com</div></td></tr><tr><td style="font-weight:bold;vertical-align:top">HTTP_REFERER</td><td valign="top">:</td><td><div>https://jbtte.pythonanywhere.com/tjdf/default/cadastro</div></td></tr><tr><td style="font-weight:bold;vertical-align:top">HTTP_USER_AGENT</td><td valign="top">:</td><td><div>Mozilla/5.0 (Macintosh; Intel Mac OS X 10_8_5) AppleWebKit/537.36 (KHTML, like Gecko) Chrome/30.0.1599.101 Safari/537.36</div></td></tr><tr><td style="font-weight:bold;vertical-align:top">HTTP_X_FORWARDED_FOR</td><td valign="top">:</td><td><div>189.123.0.86</div></td></tr><tr><td style="font-weight:bold;vertical-align:top">HTTP_X_REAL_IP</td><td valign="top">:</td><td><div>189.123.0.86</div></td></tr><tr><td style="font-weight:bold;vertical-align:top">PATH_INFO</td><td valign="top">:</td><td><div>/tjdf/default/cadastro</div></td></tr><tr><td style="font-weight:bold;vertical-align:top">QUERY_STRING</td><td valign="top">:</td><td><div></div></td></tr><tr><td style="font-weight:bold;vertical-align:top">REMOTE_ADDR</td><td valign="top">:</td><td><div>10.123.14.9</div></td></tr><tr><td style="font-weight:bold;vertical-align:top">REMOTE_PORT</td><td valign="top">:</td><td><div>35577</div></td></tr><tr><td style="font-weight:bold;vertical-align:top">REQUEST_METHOD</td><td valign="top">:</td><td><div>POST</div></td></tr><tr><td style="font-weight:bold;vertical-align:top">REQUEST_URI</td><td valign="top">:</td><td><div>/tjdf/default/cadastro</div></td></tr><tr><td style="font-weight:bold;vertical-align:top">SCRIPT_NAME</td><td valign="top">:</td><td><div></div></td></tr><tr><td style="font-weight:bold;vertical-align:top">SERVER_NAME</td><td valign="top">:</td><td><div>jbtte.pythonanywhere.com</div></td></tr><tr><td style="font-weight:bold;vertical-align:top">SERVER_PORT</td><td valign="top">:</td><td><div>443</div></td></tr><tr><td style="font-weight:bold;vertical-align:top">SERVER_PROTOCOL</td><td valign="top">:</td><td><div>HTTP/1.1</div></td></tr><tr><td style="font-weight:bold;vertical-align:top">uwsgi.node</td><td valign="top">:</td><td><div>harry-liveweb2</div></td></tr><tr><td style="font-weight:bold;vertical-align:top">uwsgi.version</td><td valign="top">:</td><td><div>1.9.16</div></td></tr><tr><td style="font-weight:bold;vertical-align:top">wsgi.errors</td><td valign="top">:</td><td><div>&lt;uwsgi_file__bin_user_wsgi_wrapper.ErrorLogWrapper object at 0x332e610&gt;</div></td></tr><tr><td style="font-weight:bold;vertical-align:top">wsgi.file_wrapper</td><td valign="top">:</td><td><div>&lt;built-in function uwsgi_sendfile&gt;</div></td></tr><tr><td style="font-weight:bold;vertical-align:top">wsgi.input</td><td valign="top">:</td><td><div>&lt;open file &#x27;&lt;fdopen&gt;&#x27;, mode &#x27;w+b&#x27; at 0x422da50&gt;</div></td></tr><tr><td style="font-weight:bold;vertical-align:top">wsgi.multiprocess</td><td valign="top">:</td><td><div>True</div></td></tr><tr><td style="font-weight:bold;vertical-align:top">wsgi.multithread</td><td valign="top">:</td><td><div>False</div></td></tr><tr><td style="font-weight:bold;vertical-align:top">wsgi.run_once</td><td valign="top">:</td><td><div>False</div></td></tr><tr><td style="font-weight:bold;vertical-align:top">wsgi.url_scheme</td><td valign="top">:</td><td><div>https</div></td></tr><tr><td style="font-weight:bold;vertical-align:top">wsgi.version</td><td valign="top">:</td><td><div>1</div></td></tr></table></div></td></tr></table></div></td></tr></table></div>'
tRp58
sS'frames'
p59
(lp60
(dp61
S'file'
p62
S'/home/jbtte/web2py/gluon/restricted.py'
p63
sS'dump'
p64
(dp65
S'environment'
p66
S"{'A': <class 'gluon.html.A'>, 'ANY_OF': <class 'gluon.validators.ANY_OF'>, 'Auth': <class 'gluon.tools.Auth'>, 'B': <class 'gluon.html.B'>, 'BEAUTIFY': <class 'gluon.html.BEAUTIFY'>, 'BODY': <class 'gluon.html.BODY'>, 'BR': <class 'gluon.html.BR'>, 'BUTTON': <class 'gluon.html.BUTTON'>, 'CAT': <class 'gluon.html.CAT'>, 'CENTER': <class 'gluon.html.CENTER'>, ...}"
p67
sS'ccode'
p68
S'<code object <module> at 0x424a9b0, file "/home/...pplications/tjdf/controllers/default.py", line 4>'
p69
ssS'lnum'
p70
I212
sS'lines'
p71
(dp72
I207
S'    try:'
p73
sI208
S'        if isinstance(code, types.CodeType):'
p74
sI209
S'            ccode = code'
p75
sI210
S'        else:'
p76
sI211
S'            ccode = compile2(code, layer)'
p77
sI212
S'        exec ccode in environment'
p78
sI213
S'    except HTTP:'
p79
sI214
S'        raise'
p80
sI215
S'    except RestrictedError:'
p81
sI216
S'        # do not encapsulate (obfuscate) the original RestrictedError'
p82
ssS'call'
p83
S"(code='# -*- coding: latin1 -*-\\n\\n#@auth.requires_login(...th())\\n\\nresponse._vars=response._caller(cadastro)\\n', environment={'A': <class 'gluon.html.A'>, 'ANY_OF': <class 'gluon.validators.ANY_OF'>, 'Auth': <class 'gluon.tools.Auth'>, 'B': <class 'gluon.html.B'>, 'BEAUTIFY': <class 'gluon.html.BEAUTIFY'>, 'BODY': <class 'gluon.html.BODY'>, 'BR': <class 'gluon.html.BR'>, 'BUTTON': <class 'gluon.html.BUTTON'>, 'CAT': <class 'gluon.html.CAT'>, 'CENTER': <class 'gluon.html.CENTER'>, ...}, layer='/home/jbtte/web2py/applications/tjdf/controllers/default.py')"
p84
sS'func'
p85
S'restricted'
p86
sa(dp87
g62
S'/home/jbtte/web2py/applications/tjdf/controllers/default.py'
p88
sg64
(dp89
sg70
I143
sg71
(dp90
I132
S'    http://..../[app]/default/user/profile'
p91
sI133
S'    http://..../[app]/default/user/retrieve_password'
p92
sI134
S'    http://..../[app]/default/user/change_password'
p93
sI135
S'    http://..../[app]/default/user/manage_users (requires membership in'
p94
sI136
S'    use @auth.requires_login()'
p95
sI137
S"        @auth.requires_membership('group name')"
p96
sI138
S"        @auth.requires_permission('read','table name',record_id)"
p97
sI139
S'    to decorate functions that need access control'
p98
sI140
S'    """'
p99
sI141
S'    return dict(form=auth())'
p100
ssg83
S'()'
p101
sg85
S'<module>'
p102
sa(dp103
g62
S'/home/jbtte/web2py/gluon/globals.py'
p104
sg64
(dp105
S'self'
p106
S'undefined'
p107
sS'f'
S'<function cadastro>'
p108
ssg70
I194
sg71
(dp109
I192
S"        self.delimiters = ('{{', '}}')"
p110
sI193
S'        self._vars = None'
p111
sI194
S'        self._caller = lambda f: f()'
p112
sI195
S'        self._view_environment = None'
p113
sI196
S'        self._custom_commit = None'
p114
sI197
S'        self._custom_rollback = None'
p115
sI198
S''
sI189
S'        self.menu = []             # used by the default view layout'
p116
sI190
S'        self.files = []            # used by web2py_ajax.html'
p117
sI191
S'        self.generic_patterns = []  # patterns to allow generic views'
p118
ssg83
S'(f=<function cadastro>)'
p119
sg85
S'<lambda>'
p120
sa(dp121
g62
S'/home/jbtte/web2py/applications/tjdf/controllers/default.py'
p122
sg64
(dp123
S'session.numero'
p124
S'None'
p125
sS'processo'
p126
S'(\'new\', <?xml version="1.0" encoding="utf-8"?>\n<!DOCTYPE..."N"/></TR></TD></TR></TABLE></body></head></html>)'
p127
sS'global session'
p128
S'<Storage {\'classe\': u\'<?xml version="1.0" encodi...login]\': \'ed4c5a1f-f50f-46b0-99de-41d07d10bc96\'}>'
p129
ssg70
I28
sg71
(dp130
I32
S''
sI23
S'    if form.process().accepted:'
p131
sI24
S'        import tj'
p132
sI25
S'        processo = tj.get_page(form.vars.processo)'
p133
sI26
S'        session.reu = processo[0].decode("latin1", "ignore")'
p134
sI27
S'        session.classe = processo[1].decode("latin1", "ignore")'
p135
sI28
S'        session.numero = processo[2]'
p136
sI29
S'        session.crime = processo[3].decode("latin1", "ignore")'
p137
sI30
S'        session.competencia = processo[4]'
p138
sI31
S"        redirect(URL('cadastro_final'))"
p139
ssg83
S'()'
p140
sg85
S'cadastro'
p141
sasS'pyver'
p142
S'Python 2.7.4: /usr/local/bin/uwsgi (prefix: /usr)'
p143
sS'session'
p144
g57
(S's$\x18\x00\x00<div><table><tr><td style="font-weight:bold;vertical-align:top">classe</td><td valign="top">:</td><td><div>&lt;?xml version=&quot;1.0&quot; encoding=&quot;ignore&quot;?&gt;\n&lt;!DOCTYPE html PUBLIC &quot;-//W3C//DTD XHTML 1.0 Transitional//EN&quot; &quot;http://www.w3.org/TR/xhtml1/DTD/xhtml1-transitional.dtd&quot;&gt;\n&lt;html xmlns=&quot;http://www.w3.org/1999/xhtml&quot;&gt;\n &lt;head&gt;\n  &lt;meta content=&quot;text/html; charset=iso-8859-1&quot; http-equiv=&quot;Content-Type&quot;/&gt;\n  &lt;title&gt;\n   TJDFT - Tribunal de Justia do Distrito Federal e dos Territrios\n  &lt;/title&gt;\n  &lt;link href=&quot;http://www2.tjdft.jus.br/css/pgResp.css&quot; rel=&quot;stylesheet&quot; type=&quot;text/css&quot;&gt;\n   &lt;script language=&quot;javascript&quot; src=&quot;http://www2.tjdft.jus.br/js/pg_resp.js&quot; type=&quot;text/javascript&quot;/&gt;\n   &lt;noscript&gt;\n    javascript para redirecionar para a principal\n   &lt;/noscript&gt;\n  &lt;/link&gt;\n  &lt;body&gt;\n   &lt;div id=&quot;cabeca&quot;&gt;\n    &lt;h1&gt;\n     &lt;div/&gt;\n     &lt;span&gt;\n      Tribunal de Justia do Distrito Federal e Territrios - TJDFT\n     &lt;/span&gt;\n    &lt;/h1&gt;\n   &lt;/div&gt;\n   &lt;p class=&quot;voltar&quot;&gt;\n    &lt;a href=&quot;#&quot; id=&quot;linkVoltar&quot; title=&quot;Voltar para a pgina principal.&quot;&gt;\n     voltar\n    &lt;/a&gt;\n   &lt;/p&gt;\n   &lt;TABLE BORDER=&quot;0&quot;&gt;\n    &lt;TR&gt;\n     &lt;TD&gt;\n      &lt;p&gt;\n       &lt;strong&gt;\n        3\xc2\xaa Turma Criminal\n       &lt;/strong&gt;\n      &lt;/p&gt;\n     &lt;/TD&gt;\n    &lt;/TR&gt;\n    &lt;TR&gt;\n     &lt;TD&gt;\n      &lt;p&gt;\n       &lt;LI&gt;\n        &lt;A HREF=&quot;http://tjdf19.tjdft.jus.br/cgi-bin/tjcgi1?NXTPGM=plhtml06=INTER=20111210021073APR&quot;&gt;\n         &lt;p&gt;\n          2011 12 1 002107-3 APR\n          &lt;br&gt;\n           0002087-38.2011.807.0012 (Res.65 - CNJ)\n          &lt;/br&gt;\n         &lt;/p&gt;\n        &lt;/A&gt;\n       &lt;/LI&gt;\n       &lt;TD&gt;\n        &lt;p&gt;\n         LUIZ CARLOS CARVALHO DE ALMEIDA\n        &lt;/p&gt;\n       &lt;/TD&gt;\n      &lt;/p&gt;\n      &lt;TR&gt;\n       &lt;TD/&gt;\n       &lt;TD&gt;\n        &lt;p&gt;\n         MINIST\xc3\x89RIO P\xc3\x9aBLICO DO DISTRITO FEDERAL E TERRIT\xc3\x93RIOS\n        &lt;/p&gt;\n       &lt;/TD&gt;\n      &lt;/TR&gt;\n      &lt;TR&gt;\n       &lt;TD&gt;\n        &lt;p&gt;\n         &lt;LI&gt;\n          &lt;A HREF=&quot;http://tjdf19.tjdft.jus.br/cgi-bin/tjcgi1?NXTPGM=plhtml06=INTER=20111210021073RSE&quot;&gt;\n           &lt;p&gt;\n            2011 12 1 002107-3 RSE\n            &lt;br&gt;\n             0002087-38.2011.807.0012 (Res.65 - CNJ)\n            &lt;/br&gt;\n           &lt;/p&gt;\n          &lt;/A&gt;\n         &lt;/LI&gt;\n         &lt;TD&gt;\n          &lt;p&gt;\n           LUIZ CARLOS CARVALHO DE ALMEIDA\n          &lt;/p&gt;\n         &lt;/TD&gt;\n        &lt;/p&gt;\n        &lt;TR&gt;\n         &lt;TD/&gt;\n         &lt;TD&gt;\n          &lt;p&gt;\n           MINIST\xc3\x89RIO P\xc3\x9aBLICO DO DISTRITO FEDERAL E TERRIT\xc3\x93RIOS\n          &lt;/p&gt;\n         &lt;/TD&gt;\n        &lt;/TR&gt;\n       &lt;/TD&gt;\n       &lt;hidden id=&quot;processo_1_1_1&quot; value=&quot;20111210021073APR&quot;/&gt;\n       &lt;hidden id=&quot;vara_1_1&quot; value=&quot;3\xc2\xaa Turma Criminal&quot;/&gt;\n       &lt;hidden id=&quot;classeProcessual_1_1_1&quot; value=&quot;Apela\xc3\xa7\xc3\xa3o Criminal&quot;/&gt;\n       &lt;hidden id=&quot;autor_1_1_1&quot; value=&quot;LUIZ CARLOS CARVALHO DE ALMEIDA&quot;/&gt;\n       &lt;hidden id=&quot;reu_1_1_1&quot; value=&quot;MINIST\xc3\x89RIO P\xc3\x9aBLICO DO DISTRITO FEDERAL E TERRIT\xc3\x93RIOS&quot;/&gt;\n       &lt;hidden id=&quot;circunscricao_1_1_1&quot; value=&quot;1&quot;/&gt;\n       &lt;hidden id=&quot;numeroCnj_1_1_1&quot; value=&quot;00020873820118070012&quot;/&gt;\n       &lt;hidden id=&quot;segredoDeJustica_1_1_1&quot; value=&quot;N&quot;/&gt;\n       &lt;hidden id=&quot;advogadosAutor_1_1_1&quot; value=&quot;CAIO TODD SILVA FREIRE#DF034397&quot;/&gt;\n       &lt;hidden id=&quot;advogadosReu_1_1_1&quot; value=&quot;CARLOS GELIO ALVES DE SOUZA#DF013761&quot;/&gt;\n       &lt;hidden id=&quot;competencia_1_1_1&quot; value=&quot;Criminal&quot;/&gt;\n       &lt;hidden id=&quot;outrosAutores_1_1_1&quot; value=&quot;S&quot;/&gt;\n       &lt;hidden id=&quot;outrosReus_1_1_1&quot; value=&quot;N&quot;/&gt;\n       &lt;hidden id=&quot;processo_1_1_2&quot; value=&quot;20111210021073RSE&quot;/&gt;\n       &lt;hidden id=&quot;vara_1_1&quot; value=&quot;3\xc2\xaa Turma Criminal&quot;/&gt;\n       &lt;hidden id=&quot;classeProcessual_1_1_2&quot; value=&quot;Recurso em Sentido Estrito&quot;/&gt;\n       &lt;hidden id=&quot;autor_1_1_2&quot; value=&quot;LUIZ CARLOS CARVALHO DE ALMEIDA&quot;/&gt;\n       &lt;hidden id=&quot;reu_1_1_2&quot; value=&quot;MINIST\xc3\x89RIO P\xc3\x9aBLICO DO DISTRITO FEDERAL E TERRIT\xc3\x93RIOS&quot;/&gt;\n       &lt;hidden id=&quot;circunscricao_1_1_2&quot; value=&quot;1&quot;/&gt;\n       &lt;hidden id=&quot;numeroCnj_1_1_2&quot; value=&quot;00020873820118070012&quot;/&gt;\n       &lt;hidden id=&quot;segredoDeJustica_1_1_2&quot; value=&quot;N&quot;/&gt;\n       &lt;hidden id=&quot;advogadosAutor_1_1_2&quot; value=&quot;DEFENSORIA PUBLICA DO DISTRITO FEDERAL#DF050000&quot;/&gt;\n       &lt;hidden id=&quot;advogadosReu_1_1_2&quot; value=&quot;&quot;/&gt;\n       &lt;hidden id=&quot;competencia_1_1_2&quot; value=&quot;Criminal&quot;/&gt;\n       &lt;hidden id=&quot;outrosAutores_1_1_2&quot; value=&quot;N&quot;/&gt;\n       &lt;hidden id=&quot;outrosReus_1_1_2&quot; value=&quot;N&quot;/&gt;\n      &lt;/TR&gt;\n     &lt;/TD&gt;\n    &lt;/TR&gt;\n   &lt;/TABLE&gt;\n  &lt;/body&gt;\n &lt;/head&gt;\n&lt;/html&gt;</div></td></tr><tr><td style="font-weight:bold;vertical-align:top">flash</td><td valign="top">:</td><td><div>None</div></td></tr><tr><td style="font-weight:bold;vertical-align:top">frelatora</td><td valign="top">:</td><td><div>6</div></td></tr><tr><td style="font-weight:bold;vertical-align:top">frevisora</td><td valign="top">:</td><td><div>2</div></td></tr><tr><td style="font-weight:bold;vertical-align:top">ftotal</td><td valign="top">:</td><td><div>8</div></td></tr><tr><td style="font-weight:bold;vertical-align:top">reu</td><td valign="top">:</td><td><div>new</div></td></tr></table></div>'
tRp145
sS'etype'
p146
S"<type 'exceptions.IndexError'>"
p147
sS'date'
p148
S'Sat Oct 19 21:31:51 2013'
p149
sS'response'
p150
g57
(S's\x1f\x18\x00\x00<div><table><tr><td style="font-weight:bold;vertical-align:top">body</td><td valign="top">:</td><td><div>&lt;cStringIO.StringO object at 0x4244110&gt;</div></td></tr><tr><td style="font-weight:bold;vertical-align:top">cookies</td><td valign="top">:</td><td><div><table><tr><td style="font-weight:bold;vertical-align:top">session_id_tjdf</td><td valign="top">:</td><td><div>189.123.0.86-37d5fcf1-6497-452f-9ad7-111f242b4fcb<table><tr><td style="font-weight:bold;vertical-align:top">comment</td><td valign="top">:</td><td><div></div></td></tr><tr><td style="font-weight:bold;vertical-align:top">domain</td><td valign="top">:</td><td><div></div></td></tr><tr><td style="font-weight:bold;vertical-align:top">expires</td><td valign="top">:</td><td><div></div></td></tr><tr><td style="font-weight:bold;vertical-align:top">httponly</td><td valign="top">:</td><td><div></div></td></tr><tr><td style="font-weight:bold;vertical-align:top">max-age</td><td valign="top">:</td><td><div></div></td></tr><tr><td style="font-weight:bold;vertical-align:top">path</td><td valign="top">:</td><td><div>/</div></td></tr><tr><td style="font-weight:bold;vertical-align:top">secure</td><td valign="top">:</td><td><div></div></td></tr><tr><td style="font-weight:bold;vertical-align:top">version</td><td valign="top">:</td><td><div></div></td></tr></table></div></td></tr></table></div></td></tr><tr><td style="font-weight:bold;vertical-align:top">delimiters</td><td valign="top">:</td><td><div><table><tr><td><div>{{</div></td></tr><tr><td><div>}}</div></td></tr></table></div></td></tr><tr><td style="font-weight:bold;vertical-align:top">files</td><td valign="top">:</td><td><div><table></table></div></td></tr><tr><td style="font-weight:bold;vertical-align:top">flash</td><td valign="top">:</td><td><div>Success!</div></td></tr><tr><td style="font-weight:bold;vertical-align:top">generic_patterns</td><td valign="top">:</td><td><div><table></table></div></td></tr><tr><td style="font-weight:bold;vertical-align:top">google_analytics_id</td><td valign="top">:</td><td><div>None</div></td></tr><tr><td style="font-weight:bold;vertical-align:top">headers</td><td valign="top">:</td><td><div><table><tr><td style="font-weight:bold;vertical-align:top">X-Powered-By</td><td valign="top">:</td><td><div>web2py</div></td></tr></table></div></td></tr><tr><td style="font-weight:bold;vertical-align:top">logo</td><td valign="top">:</td><td><div><a class="brand" href="http://www.web2py.com/"><b>web<span>2</span>py</b>&trade;&nbsp;</a></div></td></tr><tr><td style="font-weight:bold;vertical-align:top">menu</td><td valign="top">:</td><td><div><table><tr><td><div><table><tr><td><div>Home</div></td></tr><tr><td><div>False</div></td></tr><tr><td><div>/tjdf/default/index</div></td></tr></table></div></td></tr><tr><td><div><table><tr><td><div>Cadastro</div></td></tr><tr><td><div>True</div></td></tr><tr><td><div>/tjdf/default/cadastro</div></td></tr></table></div></td></tr><tr><td><div><table><tr><td><div>Pesquisa</div></td></tr><tr><td><div>False</div></td></tr><tr><td><div>/tjdf/default/pesquisa</div></td></tr></table></div></td></tr></table></div></td></tr><tr><td style="font-weight:bold;vertical-align:top">meta</td><td valign="top">:</td><td><div><table><tr><td style="font-weight:bold;vertical-align:top">author</td><td valign="top">:</td><td><div>JPB &lt;you@example.com&gt;</div></td></tr><tr><td style="font-weight:bold;vertical-align:top">description</td><td valign="top">:</td><td><div>Utilizado para realizar o cadastro de processos</div></td></tr><tr><td style="font-weight:bold;vertical-align:top">generator</td><td valign="top">:</td><td><div>Web2py Web Framework</div></td></tr><tr><td style="font-weight:bold;vertical-align:top">keywords</td><td valign="top">:</td><td><div>web2py, python, framework</div></td></tr></table></div></td></tr><tr><td style="font-weight:bold;vertical-align:top">models_to_run</td><td valign="top">:</td><td><div><table><tr><td><div>^\\w+\\.py$</div></td></tr><tr><td><div>^default/\\w+\\.py$</div></td></tr><tr><td><div>^default/cadastro/\\w+\\.py$</div></td></tr></table></div></td></tr><tr><td style="font-weight:bold;vertical-align:top">postprocessing</td><td valign="top">:</td><td><div><table></table></div></td></tr><tr><td style="font-weight:bold;vertical-align:top">session_cookie_expires</td><td valign="top">:</td><td><div>None</div></td></tr><tr><td style="font-weight:bold;vertical-align:top">session_data_name</td><td valign="top">:</td><td><div>session_data_tjdf</div></td></tr><tr><td style="font-weight:bold;vertical-align:top">session_file</td><td valign="top">:</td><td><div>&lt;open file &#x27;/home/jbtte/web2py/applications/tjdf/sessions/189.123.0.86-37d5fcf1-6497-452f-9ad7-111f242b4fcb&#x27;, mode &#x27;rb+&#x27; at 0x422de40&gt;</div></td></tr><tr><td style="font-weight:bold;vertical-align:top">session_filename</td><td valign="top">:</td><td><div>/home/jbtte/web2py/applications/tjdf/sessions/189.123.0.86-37d5fcf1-6497-452f-9ad7-111f242b4fcb</div></td></tr><tr><td style="font-weight:bold;vertical-align:top">session_id</td><td valign="top">:</td><td><div>189.123.0.86-37d5fcf1-6497-452f-9ad7-111f242b4fcb</div></td></tr><tr><td style="font-weight:bold;vertical-align:top">session_id_name</td><td valign="top">:</td><td><div>session_id_tjdf</div></td></tr><tr><td style="font-weight:bold;vertical-align:top">session_locked</td><td valign="top">:</td><td><div>True</div></td></tr><tr><td style="font-weight:bold;vertical-align:top">session_new</td><td valign="top">:</td><td><div>False</div></td></tr><tr><td style="font-weight:bold;vertical-align:top">session_storage_type</td><td valign="top">:</td><td><div>file</div></td></tr><tr><td style="font-weight:bold;vertical-align:top">status</td><td valign="top">:</td><td><div>200</div></td></tr><tr><td style="font-weight:bold;vertical-align:top">subtitle</td><td valign="top">:</td><td><div>Cadastro de Processo</div></td></tr><tr><td style="font-weight:bold;vertical-align:top">title</td><td valign="top">:</td><td><div>Tjdf</div></td></tr><tr><td style="font-weight:bold;vertical-align:top">view</td><td valign="top">:</td><td><div>default/cadastro.html</div></td></tr></table></div>'
tRp151
sS'locals'
p152
(dp153
S'processo'
p154
S'(\'new\', <?xml version="1.0" encoding="utf-8"?>\n<!DOCTYPE..."N"/></TR></TD></TR></TABLE></body></head></html>)'
p155
sS'tj'
p156
S"<module 'applications.tjdf.modules.tj' from 'applications/tjdf/modules/tj.py'>"
p157
sS'form'
p158
S'<gluon.sqlhtml.SQLFORM object>'
p159
sssS'traceback'
p160
S'Traceback (most recent call last):\n  File "/home/jbtte/web2py/gluon/restricted.py", line 212, in restricted\n    exec ccode in environment\n  File "/home/jbtte/web2py/applications/tjdf/controllers/default.py", line 143, in <module>\n  File "/home/jbtte/web2py/gluon/globals.py", line 194, in <lambda>\n    self._caller = lambda f: f()\n  File "/home/jbtte/web2py/applications/tjdf/controllers/default.py", line 28, in cadastro\n    session.numero = processo[2]\nIndexError: tuple index out of range\n'
p161
s.