(dp1
S'output'
p2
S''
sS'layer'
p3
S'Framework'
p4
sS'code'
p5
S''
sS'snapshot'
p6
(dp7
S'exception'
p8
(dp9
S'__hash__'
p10
S"<method-wrapper '__hash__' of exceptions.TypeError object>"
p11
sS'__setattr__'
p12
S"<method-wrapper '__setattr__' of exceptions.TypeError object>"
p13
sS'__reduce_ex__'
p14
S'<built-in method __reduce_ex__ of exceptions.TypeError object>'
p15
sS'__getslice__'
p16
S"<method-wrapper '__getslice__' of exceptions.TypeError object>"
p17
sS'__getitem__'
p18
S"<method-wrapper '__getitem__' of exceptions.TypeError object>"
p19
sS'__setstate__'
p20
S'<built-in method __setstate__ of exceptions.TypeError object>'
p21
sS'args'
p22
S'("can\'t pickle XMLParser objects",)'
p23
sS'__reduce__'
p24
S'<built-in method __reduce__ of exceptions.TypeError object>'
p25
sS'__str__'
p26
S"<method-wrapper '__str__' of exceptions.TypeError object>"
p27
sS'__format__'
p28
S'<built-in method __format__ of exceptions.TypeError object>'
p29
sS'__getattribute__'
p30
S"<method-wrapper '__getattribute__' of exceptions.TypeError object>"
p31
sS'__class__'
p32
S"<type 'exceptions.TypeError'>"
p33
sS'__unicode__'
p34
S'<built-in method __unicode__ of exceptions.TypeError object>'
p35
sS'__delattr__'
p36
S"<method-wrapper '__delattr__' of exceptions.TypeError object>"
p37
sS'__subclasshook__'
p38
S'<built-in method __subclasshook__ of type object>'
p39
sS'__repr__'
p40
S"<method-wrapper '__repr__' of exceptions.TypeError object>"
p41
sS'__dict__'
p42
S'{}'
p43
sS'__sizeof__'
p44
S'<built-in method __sizeof__ of exceptions.TypeError object>'
p45
sS'__doc__'
p46
S"'Inappropriate argument type.'"
p47
sS'__init__'
p48
S"<method-wrapper '__init__' of exceptions.TypeError object>"
p49
sS'__new__'
p50
S'<built-in method __new__ of type object>'
p51
ssS'evalue'
p52
S"can't pickle XMLParser objects"
p53
sS'request'
p54
cgluon.html
XML_unpickle
p55
(S's\x80T\x00\x00<div><table><tr><td style="font-weight:bold;vertical-align:top">ajax</td><td valign="top">:</td><td><div>False</div></td></tr><tr><td style="font-weight:bold;vertical-align:top">application</td><td valign="top">:</td><td><div>tjdf</div></td></tr><tr><td style="font-weight:bold;vertical-align:top">args</td><td valign="top">:</td><td><div><table></table></div></td></tr><tr><td style="font-weight:bold;vertical-align:top">body</td><td valign="top">:</td><td><div>&lt;closed file &#x27;&lt;fdopen&gt;&#x27;, mode &#x27;w+b&#x27; at 0x3de6c90&gt;</div></td></tr><tr><td style="font-weight:bold;vertical-align:top">cid</td><td valign="top">:</td><td><div>None</div></td></tr><tr><td style="font-weight:bold;vertical-align:top">client</td><td valign="top">:</td><td><div>189.123.0.86</div></td></tr><tr><td style="font-weight:bold;vertical-align:top">controller</td><td valign="top">:</td><td><div>default</div></td></tr><tr><td style="font-weight:bold;vertical-align:top">cookies</td><td valign="top">:</td><td><div><table><tr><td style="font-weight:bold;vertical-align:top">session_id_admin</td><td valign="top">:</td><td><div>189.123.0.86-d4fe4048-1bb7-4677-9d1c-3952607dbb39<table><tr><td style="font-weight:bold;vertical-align:top">comment</td><td valign="top">:</td><td><div></div></td></tr><tr><td style="font-weight:bold;vertical-align:top">domain</td><td valign="top">:</td><td><div></div></td></tr><tr><td style="font-weight:bold;vertical-align:top">expires</td><td valign="top">:</td><td><div></div></td></tr><tr><td style="font-weight:bold;vertical-align:top">httponly</td><td valign="top">:</td><td><div></div></td></tr><tr><td style="font-weight:bold;vertical-align:top">max-age</td><td valign="top">:</td><td><div></div></td></tr><tr><td style="font-weight:bold;vertical-align:top">path</td><td valign="top">:</td><td><div></div></td></tr><tr><td style="font-weight:bold;vertical-align:top">secure</td><td valign="top">:</td><td><div></div></td></tr><tr><td style="font-weight:bold;vertical-align:top">version</td><td valign="top">:</td><td><div></div></td></tr></table></div></td></tr><tr><td style="font-weight:bold;vertical-align:top">session_id_cifras</td><td valign="top">:</td><td><div>189.123.0.86-7076c83f-8137-4d9f-a26f-e3500618287b<table><tr><td style="font-weight:bold;vertical-align:top">comment</td><td valign="top">:</td><td><div></div></td></tr><tr><td style="font-weight:bold;vertical-align:top">domain</td><td valign="top">:</td><td><div></div></td></tr><tr><td style="font-weight:bold;vertical-align:top">expires</td><td valign="top">:</td><td><div></div></td></tr><tr><td style="font-weight:bold;vertical-align:top">httponly</td><td valign="top">:</td><td><div></div></td></tr><tr><td style="font-weight:bold;vertical-align:top">max-age</td><td valign="top">:</td><td><div></div></td></tr><tr><td style="font-weight:bold;vertical-align:top">path</td><td valign="top">:</td><td><div></div></td></tr><tr><td style="font-weight:bold;vertical-align:top">secure</td><td valign="top">:</td><td><div></div></td></tr><tr><td style="font-weight:bold;vertical-align:top">version</td><td valign="top">:</td><td><div></div></td></tr></table></div></td></tr><tr><td style="font-weight:bold;vertical-align:top">session_id_tjdf</td><td valign="top">:</td><td><div>189.123.0.86-37d5fcf1-6497-452f-9ad7-111f242b4fcb<table><tr><td style="font-weight:bold;vertical-align:top">comment</td><td valign="top">:</td><td><div></div></td></tr><tr><td style="font-weight:bold;vertical-align:top">domain</td><td valign="top">:</td><td><div></div></td></tr><tr><td style="font-weight:bold;vertical-align:top">expires</td><td valign="top">:</td><td><div></div></td></tr><tr><td style="font-weight:bold;vertical-align:top">httponly</td><td valign="top">:</td><td><div></div></td></tr><tr><td style="font-weight:bold;vertical-align:top">max-age</td><td valign="top">:</td><td><div></div></td></tr><tr><td style="font-weight:bold;vertical-align:top">path</td><td valign="top">:</td><td><div></div></td></tr><tr><td style="font-weight:bold;vertical-align:top">secure</td><td valign="top">:</td><td><div></div></td></tr><tr><td style="font-weight:bold;vertical-align:top">version</td><td valign="top">:</td><td><div></div></td></tr></table></div></td></tr></table></div></td></tr><tr><td style="font-weight:bold;vertical-align:top">env</td><td valign="top">:</td><td><div><table><tr><td style="font-weight:bold;vertical-align:top">app_folders</td><td valign="top">:</td><td><div>set([&#x27;/home/jbtte/web2py/applications/admin/&#x27;, &#x27;/home/jbtte/web2py/applications/tjdf/&#x27;])</div></td></tr><tr><td style="font-weight:bold;vertical-align:top">applications_parent</td><td valign="top">:</td><td><div>/home/jbtte/web2py</div></td></tr><tr><td style="font-weight:bold;vertical-align:top">content_length</td><td valign="top">:</td><td><div>395</div></td></tr><tr><td style="font-weight:bold;vertical-align:top">content_type</td><td valign="top">:</td><td><div>multipart/form-data; boundary=----WebKitFormBoundaryYzNuMZf94k7AtbgE</div></td></tr><tr><td style="font-weight:bold;vertical-align:top">db_sessions</td><td valign="top">:</td><td><div>set([])</div></td></tr><tr><td style="font-weight:bold;vertical-align:top">debugging</td><td valign="top">:</td><td><div>True</div></td></tr><tr><td style="font-weight:bold;vertical-align:top">document_root</td><td valign="top">:</td><td><div>/usr/share/nginx/html</div></td></tr><tr><td style="font-weight:bold;vertical-align:top">gluon_parent</td><td valign="top">:</td><td><div>/home/jbtte/web2py</div></td></tr><tr><td style="font-weight:bold;vertical-align:top">http_accept</td><td valign="top">:</td><td><div>text/html,application/xhtml+xml,application/xml;q=0.9,image/webp,*/*;q=0.8</div></td></tr><tr><td style="font-weight:bold;vertical-align:top">http_accept_encoding</td><td valign="top">:</td><td><div>gzip,deflate,sdch</div></td></tr><tr><td style="font-weight:bold;vertical-align:top">http_accept_language</td><td valign="top">:</td><td><div>pt-BR,pt;q=0.8,en-US;q=0.6,en;q=0.4</div></td></tr><tr><td style="font-weight:bold;vertical-align:top">http_connection</td><td valign="top">:</td><td><div>close</div></td></tr><tr><td style="font-weight:bold;vertical-align:top">http_content_length</td><td valign="top">:</td><td><div>395</div></td></tr><tr><td style="font-weight:bold;vertical-align:top">http_content_type</td><td valign="top">:</td><td><div>multipart/form-data; boundary=----WebKitFormBoundaryYzNuMZf94k7AtbgE</div></td></tr><tr><td style="font-weight:bold;vertical-align:top">http_cookie</td><td valign="top">:</td><td><div>__utma=133430031.682321608.1379258277.1382064277.1382104541.26; __utmc=133430031; __utmz=133430031.1380998005.13.6.utmcsr=google|utmccn=(organic)|utmcmd=organic|utmctr=(not%20provided); session_id_cifras=189.123.0.86-7076c83f-8137-4d9f-a26f-e3500618287b; session_id_admin=189.123.0.86-d4fe4048-1bb7-4677-9d1c-3952607dbb39; session_id_tjdf=189.123.0.86-37d5fcf1-6497-452f-9ad7-111f242b4fcb</div></td></tr><tr><td style="font-weight:bold;vertical-align:top">http_host</td><td valign="top">:</td><td><div>jbtte.pythonanywhere.com</div></td></tr><tr><td style="font-weight:bold;vertical-align:top">http_origin</td><td valign="top">:</td><td><div>https://jbtte.pythonanywhere.com</div></td></tr><tr><td style="font-weight:bold;vertical-align:top">http_referer</td><td valign="top">:</td><td><div>https://jbtte.pythonanywhere.com/tjdf/default/cadastro</div></td></tr><tr><td style="font-weight:bold;vertical-align:top">http_user_agent</td><td valign="top">:</td><td><div>Mozilla/5.0 (Macintosh; Intel Mac OS X 10_8_5) AppleWebKit/537.36 (KHTML, like Gecko) Chrome/30.0.1599.101 Safari/537.36</div></td></tr><tr><td style="font-weight:bold;vertical-align:top">http_x_forwarded_for</td><td valign="top">:</td><td><div>189.123.0.86</div></td></tr><tr><td style="font-weight:bold;vertical-align:top">http_x_real_ip</td><td valign="top">:</td><td><div>189.123.0.86</div></td></tr><tr><td style="font-weight:bold;vertical-align:top">https</td><td valign="top">:</td><td><div>on</div></td></tr><tr><td style="font-weight:bold;vertical-align:top">is_jython</td><td valign="top">:</td><td><div>False</div></td></tr><tr><td style="font-weight:bold;vertical-align:top">is_pypy</td><td valign="top">:</td><td><div>False</div></td></tr><tr><td style="font-weight:bold;vertical-align:top">local_hosts</td><td valign="top">:</td><td><div><table><tr><td><div>harry-liveweb2</div></td></tr><tr><td><div>jbtte.pythonanywhere.com</div></td></tr><tr><td><div>::1</div></td></tr><tr><td><div>::ffff:127.0.0.1</div></td></tr><tr><td><div>50.19.109.98</div></td></tr><tr><td><div>127.0.0.1</div></td></tr><tr><td><div>localhost</div></td></tr></table></div></td></tr><tr><td style="font-weight:bold;vertical-align:top">path_info</td><td valign="top">:</td><td><div>/tjdf/default/cadastro</div></td></tr><tr><td style="font-weight:bold;vertical-align:top">query_string</td><td valign="top">:</td><td><div></div></td></tr><tr><td style="font-weight:bold;vertical-align:top">remote_addr</td><td valign="top">:</td><td><div>10.123.14.9</div></td></tr><tr><td style="font-weight:bold;vertical-align:top">remote_port</td><td valign="top">:</td><td><div>36237</div></td></tr><tr><td style="font-weight:bold;vertical-align:top">request_method</td><td valign="top">:</td><td><div>POST</div></td></tr><tr><td style="font-weight:bold;vertical-align:top">request_uri</td><td valign="top">:</td><td><div>/tjdf/default/cadastro</div></td></tr><tr><td style="font-weight:bold;vertical-align:top">script_name</td><td valign="top">:</td><td><div></div></td></tr><tr><td style="font-weight:bold;vertical-align:top">server_name</td><td valign="top">:</td><td><div>jbtte.pythonanywhere.com</div></td></tr><tr><td style="font-weight:bold;vertical-align:top">server_port</td><td valign="top">:</td><td><div>443</div></td></tr><tr><td style="font-weight:bold;vertical-align:top">server_protocol</td><td valign="top">:</td><td><div>HTTP/1.1</div></td></tr><tr><td style="font-weight:bold;vertical-align:top">uwsgi_node</td><td valign="top">:</td><td><div>harry-liveweb2</div></td></tr><tr><td style="font-weight:bold;vertical-align:top">uwsgi_version</td><td valign="top">:</td><td><div>1.9.16</div></td></tr><tr><td style="font-weight:bold;vertical-align:top">web2py_path</td><td valign="top">:</td><td><div>/home/jbtte/web2py</div></td></tr><tr><td style="font-weight:bold;vertical-align:top">web2py_version</td><td valign="top">:</td><td><div>2.5.1-stable+timestamp.2013.06.06.15.39.19</div></td></tr><tr><td style="font-weight:bold;vertical-align:top">wsgi_errors</td><td valign="top">:</td><td><div>&lt;uwsgi_file__bin_user_wsgi_wrapper.ErrorLogWrapper object at 0x332e610&gt;</div></td></tr><tr><td style="font-weight:bold;vertical-align:top">wsgi_file_wrapper</td><td valign="top">:</td><td><div>&lt;built-in function uwsgi_sendfile&gt;</div></td></tr><tr><td style="font-weight:bold;vertical-align:top">wsgi_input</td><td valign="top">:</td><td><div>&lt;uwsgi._Input object at 0x7f11a88fd5d0&gt;</div></td></tr><tr><td style="font-weight:bold;vertical-align:top">wsgi_multiprocess</td><td valign="top">:</td><td><div>True</div></td></tr><tr><td style="font-weight:bold;vertical-align:top">wsgi_multithread</td><td valign="top">:</td><td><div>False</div></td></tr><tr><td style="font-weight:bold;vertical-align:top">wsgi_run_once</td><td valign="top">:</td><td><div>False</div></td></tr><tr><td style="font-weight:bold;vertical-align:top">wsgi_url_scheme</td><td valign="top">:</td><td><div>https</div></td></tr><tr><td style="font-weight:bold;vertical-align:top">wsgi_version</td><td valign="top">:</td><td><div><table><tr><td><div>1</div></td></tr><tr><td><div>0</div></td></tr></table></div></td></tr></table></div></td></tr><tr><td style="font-weight:bold;vertical-align:top">extension</td><td valign="top">:</td><td><div>html</div></td></tr><tr><td style="font-weight:bold;vertical-align:top">folder</td><td valign="top">:</td><td><div>/home/jbtte/web2py/applications/tjdf/</div></td></tr><tr><td style="font-weight:bold;vertical-align:top">function</td><td valign="top">:</td><td><div>cadastro</div></td></tr><tr><td style="font-weight:bold;vertical-align:top">get_vars</td><td valign="top">:</td><td><div><table></table></div></td></tr><tr><td style="font-weight:bold;vertical-align:top">global_settings</td><td valign="top">:</td><td><div><table><tr><td style="font-weight:bold;vertical-align:top">app_folders</td><td valign="top">:</td><td><div>set([&#x27;/home/jbtte/web2py/applications/admin/&#x27;, &#x27;/home/jbtte/web2py/applications/tjdf/&#x27;])</div></td></tr><tr><td style="font-weight:bold;vertical-align:top">applications_parent</td><td valign="top">:</td><td><div>/home/jbtte/web2py</div></td></tr><tr><td style="font-weight:bold;vertical-align:top">db_sessions</td><td valign="top">:</td><td><div>set([])</div></td></tr><tr><td style="font-weight:bold;vertical-align:top">debugging</td><td valign="top">:</td><td><div>True</div></td></tr><tr><td style="font-weight:bold;vertical-align:top">gluon_parent</td><td valign="top">:</td><td><div>/home/jbtte/web2py</div></td></tr><tr><td style="font-weight:bold;vertical-align:top">is_jython</td><td valign="top">:</td><td><div>False</div></td></tr><tr><td style="font-weight:bold;vertical-align:top">is_pypy</td><td valign="top">:</td><td><div>False</div></td></tr><tr><td style="font-weight:bold;vertical-align:top">local_hosts</td><td valign="top">:</td><td><div><table><tr><td><div>harry-liveweb2</div></td></tr><tr><td><div>jbtte.pythonanywhere.com</div></td></tr><tr><td><div>::1</div></td></tr><tr><td><div>::ffff:127.0.0.1</div></td></tr><tr><td><div>50.19.109.98</div></td></tr><tr><td><div>127.0.0.1</div></td></tr><tr><td><div>localhost</div></td></tr></table></div></td></tr><tr><td style="font-weight:bold;vertical-align:top">web2py_version</td><td valign="top">:</td><td><div>2.5.1-stable+timestamp.2013.06.06.15.39.19</div></td></tr></table></div></td></tr><tr><td style="font-weight:bold;vertical-align:top">is_https</td><td valign="top">:</td><td><div>True</div></td></tr><tr><td style="font-weight:bold;vertical-align:top">is_local</td><td valign="top">:</td><td><div>False</div></td></tr><tr><td style="font-weight:bold;vertical-align:top">is_restful</td><td valign="top">:</td><td><div>False</div></td></tr><tr><td style="font-weight:bold;vertical-align:top">now</td><td valign="top">:</td><td><div>datetime.datetime(2013, 10, 19, 21, 32, 43, 500622)</div></td></tr><tr><td style="font-weight:bold;vertical-align:top">post_vars</td><td valign="top">:</td><td><div><table><tr><td style="font-weight:bold;vertical-align:top">processo</td><td valign="top">:</td><td><div>20111210021073</div></td></tr></table></div></td></tr><tr><td style="font-weight:bold;vertical-align:top">raw_args</td><td valign="top">:</td><td><div></div></td></tr><tr><td style="font-weight:bold;vertical-align:top">raw_extension</td><td valign="top">:</td><td><div>None</div></td></tr><tr><td style="font-weight:bold;vertical-align:top">url</td><td valign="top">:</td><td><div>/tjdf/default/cadastro</div></td></tr><tr><td style="font-weight:bold;vertical-align:top">utcnow</td><td valign="top">:</td><td><div>datetime.datetime(2013, 10, 19, 21, 32, 43, 500646)</div></td></tr><tr><td style="font-weight:bold;vertical-align:top">uuid</td><td valign="top">:</td><td><div>tjdf/189.123.0.86.2013-10-19.21-32-43.d2495005-16fd-44a3-81f3-5ced803a8652</div></td></tr><tr><td style="font-weight:bold;vertical-align:top">vars</td><td valign="top">:</td><td><div><table><tr><td style="font-weight:bold;vertical-align:top">processo</td><td valign="top">:</td><td><div>20111210021073</div></td></tr></table></div></td></tr><tr><td style="font-weight:bold;vertical-align:top">wsgi</td><td valign="top">:</td><td><div><table><tr><td style="font-weight:bold;vertical-align:top">environ</td><td valign="top">:</td><td><div><table><tr><td style="font-weight:bold;vertical-align:top">CONTENT_LENGTH</td><td valign="top">:</td><td><div>395</div></td></tr><tr><td style="font-weight:bold;vertical-align:top">CONTENT_TYPE</td><td valign="top">:</td><td><div>multipart/form-data; boundary=----WebKitFormBoundaryYzNuMZf94k7AtbgE</div></td></tr><tr><td style="font-weight:bold;vertical-align:top">DOCUMENT_ROOT</td><td valign="top">:</td><td><div>/usr/share/nginx/html</div></td></tr><tr><td style="font-weight:bold;vertical-align:top">HTTPS</td><td valign="top">:</td><td><div>on</div></td></tr><tr><td style="font-weight:bold;vertical-align:top">HTTP_ACCEPT</td><td valign="top">:</td><td><div>text/html,application/xhtml+xml,application/xml;q=0.9,image/webp,*/*;q=0.8</div></td></tr><tr><td style="font-weight:bold;vertical-align:top">HTTP_ACCEPT_ENCODING</td><td valign="top">:</td><td><div>gzip,deflate,sdch</div></td></tr><tr><td style="font-weight:bold;vertical-align:top">HTTP_ACCEPT_LANGUAGE</td><td valign="top">:</td><td><div>pt-BR,pt;q=0.8,en-US;q=0.6,en;q=0.4</div></td></tr><tr><td style="font-weight:bold;vertical-align:top">HTTP_CONNECTION</td><td valign="top">:</td><td><div>close</div></td></tr><tr><td style="font-weight:bold;vertical-align:top">HTTP_CONTENT_LENGTH</td><td valign="top">:</td><td><div>395</div></td></tr><tr><td style="font-weight:bold;vertical-align:top">HTTP_CONTENT_TYPE</td><td valign="top">:</td><td><div>multipart/form-data; boundary=----WebKitFormBoundaryYzNuMZf94k7AtbgE</div></td></tr><tr><td style="font-weight:bold;vertical-align:top">HTTP_COOKIE</td><td valign="top">:</td><td><div>__utma=133430031.682321608.1379258277.1382064277.1382104541.26; __utmc=133430031; __utmz=133430031.1380998005.13.6.utmcsr=google|utmccn=(organic)|utmcmd=organic|utmctr=(not%20provided); session_id_cifras=189.123.0.86-7076c83f-8137-4d9f-a26f-e3500618287b; session_id_admin=189.123.0.86-d4fe4048-1bb7-4677-9d1c-3952607dbb39; session_id_tjdf=189.123.0.86-37d5fcf1-6497-452f-9ad7-111f242b4fcb</div></td></tr><tr><td style="font-weight:bold;vertical-align:top">HTTP_HOST</td><td valign="top">:</td><td><div>jbtte.pythonanywhere.com</div></td></tr><tr><td style="font-weight:bold;vertical-align:top">HTTP_ORIGIN</td><td valign="top">:</td><td><div>https://jbtte.pythonanywhere.com</div></td></tr><tr><td style="font-weight:bold;vertical-align:top">HTTP_REFERER</td><td valign="top">:</td><td><div>https://jbtte.pythonanywhere.com/tjdf/default/cadastro</div></td></tr><tr><td style="font-weight:bold;vertical-align:top">HTTP_USER_AGENT</td><td valign="top">:</td><td><div>Mozilla/5.0 (Macintosh; Intel Mac OS X 10_8_5) AppleWebKit/537.36 (KHTML, like Gecko) Chrome/30.0.1599.101 Safari/537.36</div></td></tr><tr><td style="font-weight:bold;vertical-align:top">HTTP_X_FORWARDED_FOR</td><td valign="top">:</td><td><div>189.123.0.86</div></td></tr><tr><td style="font-weight:bold;vertical-align:top">HTTP_X_REAL_IP</td><td valign="top">:</td><td><div>189.123.0.86</div></td></tr><tr><td style="font-weight:bold;vertical-align:top">PATH_INFO</td><td valign="top">:</td><td><div>/tjdf/default/cadastro</div></td></tr><tr><td style="font-weight:bold;vertical-align:top">QUERY_STRING</td><td valign="top">:</td><td><div></div></td></tr><tr><td style="font-weight:bold;vertical-align:top">REMOTE_ADDR</td><td valign="top">:</td><td><div>10.123.14.9</div></td></tr><tr><td style="font-weight:bold;vertical-align:top">REMOTE_PORT</td><td valign="top">:</td><td><div>36237</div></td></tr><tr><td style="font-weight:bold;vertical-align:top">REQUEST_METHOD</td><td valign="top">:</td><td><div>POST</div></td></tr><tr><td style="font-weight:bold;vertical-align:top">REQUEST_URI</td><td valign="top">:</td><td><div>/tjdf/default/cadastro</div></td></tr><tr><td style="font-weight:bold;vertical-align:top">SCRIPT_NAME</td><td valign="top">:</td><td><div></div></td></tr><tr><td style="font-weight:bold;vertical-align:top">SERVER_NAME</td><td valign="top">:</td><td><div>jbtte.pythonanywhere.com</div></td></tr><tr><td style="font-weight:bold;vertical-align:top">SERVER_PORT</td><td valign="top">:</td><td><div>443</div></td></tr><tr><td style="font-weight:bold;vertical-align:top">SERVER_PROTOCOL</td><td valign="top">:</td><td><div>HTTP/1.1</div></td></tr><tr><td style="font-weight:bold;vertical-align:top">uwsgi.node</td><td valign="top">:</td><td><div>harry-liveweb2</div></td></tr><tr><td style="font-weight:bold;vertical-align:top">uwsgi.version</td><td valign="top">:</td><td><div>1.9.16</div></td></tr><tr><td style="font-weight:bold;vertical-align:top">wsgi.errors</td><td valign="top">:</td><td><div>&lt;uwsgi_file__bin_user_wsgi_wrapper.ErrorLogWrapper object at 0x332e610&gt;</div></td></tr><tr><td style="font-weight:bold;vertical-align:top">wsgi.file_wrapper</td><td valign="top">:</td><td><div>&lt;built-in function uwsgi_sendfile&gt;</div></td></tr><tr><td style="font-weight:bold;vertical-align:top">wsgi.input</td><td valign="top">:</td><td><div>&lt;closed file &#x27;&lt;fdopen&gt;&#x27;, mode &#x27;w+b&#x27; at 0x3de6c90&gt;</div></td></tr><tr><td style="font-weight:bold;vertical-align:top">wsgi.multiprocess</td><td valign="top">:</td><td><div>True</div></td></tr><tr><td style="font-weight:bold;vertical-align:top">wsgi.multithread</td><td valign="top">:</td><td><div>False</div></td></tr><tr><td style="font-weight:bold;vertical-align:top">wsgi.run_once</td><td valign="top">:</td><td><div>False</div></td></tr><tr><td style="font-weight:bold;vertical-align:top">wsgi.url_scheme</td><td valign="top">:</td><td><div>https</div></td></tr><tr><td style="font-weight:bold;vertical-align:top">wsgi.version</td><td valign="top">:</td><td><div>1</div></td></tr></table></div></td></tr></table></div></td></tr></table></div>'
tRp56
sS'frames'
p57
(lp58
(dp59
S'file'
p60
S'/home/jbtte/web2py/gluon/main.py'
p61
sS'dump'
p62
(dp63
S'session._try_store_in_cookie_or_file'
p64
S"<bound method Session._try_store_in_cookie_or_fi...ogin]': 'ed4c5a1f-f50f-46b0-99de-41d07d10bc96'}>>"
p65
sS'session'
p66
S"<Storage {'_user_agent': {'is_mobile': False, 'i...login]': 'ed4c5a1f-f50f-46b0-99de-41d07d10bc96'}>"
p67
sS'request'
p68
S"<Storage {'function': 'cadastro', 'body': <close...o_table/create', 'processo': '20111210021073'}>}>"
p69
sS'response'
p70
S"<Storage {'body': <cStringIO.StringO object at 0... at 0x3ca8c08>, 'view': 'default/cadastro.html'}>"
p71
ssS'lnum'
p72
I606
sS'lines'
p73
(dp74
I608
S'                if request.cid:'
p75
sI609
S'                    if response.flash:'
p76
sI610
S"                        http_response.headers['web2py-component-flash'] = \\"
p77
sI601
S'                # ##################################################'
p78
sI602
S'                # if session not in db try store session on filesystem'
p79
sI603
S'                # this must be done after trying to commit database!'
p80
sI604
S'                # ##################################################'
p81
sI605
S''
sI606
S'                session._try_store_in_cookie_or_file(request, response)'
p82
sI607
S''
ssS'call'
p83
S"(environ={'CONTENT_LENGTH': '395', 'CONTENT_TYPE': 'multipart/form-data; boundary=----WebKitFormBoundaryYzNuMZf94k7AtbgE', 'DOCUMENT_ROOT': '/usr/share/nginx/html', 'HTTPS': 'on', 'HTTP_ACCEPT': 'text/html,application/xhtml+xml,application/xml;q=0.9,image/webp,*/*;q=0.8', 'HTTP_ACCEPT_ENCODING': 'gzip,deflate,sdch', 'HTTP_ACCEPT_LANGUAGE': 'pt-BR,pt;q=0.8,en-US;q=0.6,en;q=0.4', 'HTTP_CONNECTION': 'close', 'HTTP_CONTENT_LENGTH': '395', 'HTTP_CONTENT_TYPE': 'multipart/form-data; boundary=----WebKitFormBoundaryYzNuMZf94k7AtbgE', ...}, responder=<built-in function uwsgi_spit>)"
p84
sS'func'
p85
S'wsgibase'
p86
sa(dp87
g60
S'/home/jbtte/web2py/gluon/globals.py'
p88
sg62
(dp89
S'self._try_store_in_file'
p90
S"<bound method Session._try_store_in_file of <Sto...ogin]': 'ed4c5a1f-f50f-46b0-99de-41d07d10bc96'}>>"
p91
sS'self'
p92
S"<Storage {'_user_agent': {'is_mobile': False, 'i...login]': 'ed4c5a1f-f50f-46b0-99de-41d07d10bc96'}>"
p93
sS'request'
p94
S"<Storage {'function': 'cadastro', 'body': <close...o_table/create', 'processo': '20111210021073'}>}>"
p95
sS'response'
p96
S"<Storage {'body': <cStringIO.StringO object at 0... at 0x3ca8c08>, 'view': 'default/cadastro.html'}>"
p97
ssg72
I757
sg73
(dp98
I752
S'        return True'
p99
sI753
S''
sI754
S'    def _try_store_in_cookie_or_file(self, request, response):'
p100
sI755
S'        return \\'
p101
sI756
S'            self._try_store_in_cookie(request, response) or \\'
p102
sI757
S'            self._try_store_in_file(request, response)'
p103
sI758
S''
sI759
S'    def _try_store_in_file(self, request, response):'
p104
sI760
S"        if response.session_storage_type != 'file':"
p105
sI761
S'            return False'
p106
ssg83
S"(self=<Storage {'_user_agent': {'is_mobile': False, 'i...login]': 'ed4c5a1f-f50f-46b0-99de-41d07d10bc96'}>, request=<Storage {'function': 'cadastro', 'body': <close...o_table/create', 'processo': '20111210021073'}>}>, response=<Storage {'body': <cStringIO.StringO object at 0... at 0x3ca8c08>, 'view': 'default/cadastro.html'}>)"
p107
sg85
S'_try_store_in_cookie_or_file'
p108
sa(dp109
g60
S'/home/jbtte/web2py/gluon/globals.py'
p110
sg62
(dp111
S'self._unchanged'
p112
S"<bound method Session._unchanged of <Storage {'_...ogin]': 'ed4c5a1f-f50f-46b0-99de-41d07d10bc96'}>>"
p113
sS'response.session_id'
p114
S"'189.123.0.86-37d5fcf1-6497-452f-9ad7-111f242b4fcb'"
p115
sS'self._forget'
p116
S'None'
p117
sS'response'
p118
S"<Storage {'body': <cStringIO.StringO object at 0... at 0x3ca8c08>, 'view': 'default/cadastro.html'}>"
p119
sS'self'
p120
S"<Storage {'_user_agent': {'is_mobile': False, 'i...login]': 'ed4c5a1f-f50f-46b0-99de-41d07d10bc96'}>"
p121
ssg72
I763
sg73
(dp122
I758
S''
sI759
S'    def _try_store_in_file(self, request, response):'
p123
sI760
S"        if response.session_storage_type != 'file':"
p124
sI761
S'            return False'
p125
sI762
S'        try:'
p126
sI763
S'            if not response.session_id or self._forget or self._unchanged():'
p127
sI764
S'                return False'
p128
sI765
S'            if response.session_new or not response.session_file:'
p129
sI766
S'                # Tests if the session sub-folder exists, if not, create it'
p130
sI767
S'                session_folder = os.path.dirname(response.session_filename)'
p131
ssg83
S"(self=<Storage {'_user_agent': {'is_mobile': False, 'i...login]': 'ed4c5a1f-f50f-46b0-99de-41d07d10bc96'}>, request=<Storage {'function': 'cadastro', 'body': <close...o_table/create', 'processo': '20111210021073'}>}>, response=<Storage {'body': <cStringIO.StringO object at 0... at 0x3ca8c08>, 'view': 'default/cadastro.html'}>)"
p132
sg85
S'_try_store_in_file'
p133
sa(dp134
g60
S'/home/jbtte/web2py/gluon/globals.py'
p135
sg62
(dp136
S'self'
p137
S"<Storage {'_user_agent': {'is_mobile': False, 'i...login]': 'ed4c5a1f-f50f-46b0-99de-41d07d10bc96'}>"
p138
sS'cPickle.dumps'
p139
S'<built-in function dumps>'
p140
sS'session_pickled'
p141
S'undefined'
p142
sS'builtindict'
p143
S"<type 'dict'>"
p144
sS'global cPickle'
p145
S"<module 'cPickle' (built-in)>"
p146
ssg72
I719
sg73
(dp147
I714
S'    def _unchanged(self):'
p148
sI715
S"        previous_session_hash = self.pop('_session_hash', None)"
p149
sI716
S'        if not previous_session_hash and not \\'
p150
sI717
S'                any(value is not None for value in self.itervalues()):'
p151
sI718
S'            return True'
p152
sI719
S'        session_pickled = cPickle.dumps(dict(self))'
p153
sI720
S'        session_hash = hashlib.md5(session_pickled).hexdigest()'
p154
sI721
S'        if previous_session_hash == session_hash:'
p155
sI722
S'            return True'
p156
sI723
S'        else:'
p157
ssg83
S"(self=<Storage {'_user_agent': {'is_mobile': False, 'i...login]': 'ed4c5a1f-f50f-46b0-99de-41d07d10bc96'}>)"
p158
sg85
S'_unchanged'
p159
sa(dp160
g60
S'/usr/lib/python2.7/copy_reg.py'
p161
sg62
(dp162
S'base.__name__'
p163
S"'XMLParser'"
p164
sS'base'
p165
S"<type 'lxml.etree.XMLParser'>"
p166
sS'builtinTypeError'
p167
S"<type 'exceptions.TypeError'>"
p168
ssg72
I70
sg73
(dp169
I65
S'        base = object # not really reachable'
p170
sI66
S'    if base is object:'
p171
sI67
S'        state = None'
p172
sI68
S'    else:'
p173
sI69
S'        if base is self.__class__:'
p174
sI70
S'            raise TypeError, "can\'t pickle %s objects" % base.__name__'
p175
sI71
S'        state = base(self)'
p176
sI72
S'    args = (self.__class__, base, state)'
p177
sI73
S'    try:'
p178
sI74
S'        getstate = self.__getstate__'
p179
ssg83
S'(self=<lxml.etree.XMLParser object>, proto=0)'
p180
sg85
S'_reduce_ex'
p181
sasS'pyver'
p182
S'Python 2.7.4: /usr/local/bin/uwsgi (prefix: /usr)'
p183
sS'session'
p184
g55
(S's.\x14\x00\x00<div><table><tr><td style="font-weight:bold;vertical-align:top">flash</td><td valign="top">:</td><td><div>None</div></td></tr><tr><td style="font-weight:bold;vertical-align:top">frelatora</td><td valign="top">:</td><td><div>6</div></td></tr><tr><td style="font-weight:bold;vertical-align:top">frevisora</td><td valign="top">:</td><td><div>2</div></td></tr><tr><td style="font-weight:bold;vertical-align:top">ftotal</td><td valign="top">:</td><td><div>8</div></td></tr><tr><td style="font-weight:bold;vertical-align:top">soup</td><td valign="top">:</td><td><div>&lt;?xml version=&quot;1.0&quot; encoding=&quot;utf-8&quot;?&gt;\n&lt;!DOCTYPE html PUBLIC &quot;-//W3C//DTD XHTML 1.0 Transitional//EN&quot; &quot;http://www.w3.org/TR/xhtml1/DTD/xhtml1-transitional.dtd&quot;&gt;\n&lt;html xmlns=&quot;http://www.w3.org/1999/xhtml&quot;&gt;\n&lt;head&gt;\n&lt;meta content=&quot;text/html; charset=iso-8859-1&quot; http-equiv=&quot;Content-Type&quot;/&gt;\n&lt;title&gt;TJDFT - Tribunal de Justia do Distrito Federal e dos Territrios&lt;/title&gt;\n&lt;link href=&quot;http://www2.tjdft.jus.br/css/pgResp.css&quot; rel=&quot;stylesheet&quot; type=&quot;text/css&quot;&gt;\n&lt;script language=&quot;javascript&quot; src=&quot;http://www2.tjdft.jus.br/js/pg_resp.js&quot; type=&quot;text/javascript&quot;/&gt;\n&lt;noscript&gt;javascript para redirecionar para a principal&lt;/noscript&gt;\n&lt;/link&gt;\n&lt;body&gt;\n&lt;div id=&quot;cabeca&quot;&gt;\n&lt;h1&gt;&lt;div/&gt;&lt;span&gt;Tribunal de Justia do Distrito Federal e Territrios - TJDFT&lt;/span&gt;&lt;/h1&gt;\n&lt;/div&gt;\n&lt;p class=&quot;voltar&quot;&gt;&lt;a href=&quot;#&quot; id=&quot;linkVoltar&quot; title=&quot;Voltar para a pgina principal.&quot;&gt;voltar&lt;/a&gt;&lt;/p&gt;\n&lt;TABLE BORDER=&quot;0&quot;&gt;&lt;TR&gt;&lt;TD&gt;&lt;p&gt;&lt;strong&gt;3\xc2\xaa Turma Criminal&lt;/strong&gt;&lt;/p&gt;&lt;/TD&gt;&lt;/TR&gt;&lt;TR&gt;&lt;TD&gt;&lt;p&gt;&lt;LI&gt;&lt;A HREF=&quot;http://tjdf19.tjdft.jus.br/cgi-bin/tjcgi1?NXTPGM=plhtml06=INTER=20111210021073APR&quot;&gt;&lt;p&gt;2011 12 1 002107-3 APR&lt;br&gt;0002087-38.2011.807.0012 (Res.65 - CNJ)&lt;/br&gt;&lt;/p&gt;&lt;/A&gt;&lt;/LI&gt;&lt;TD&gt;&lt;p&gt;LUIZ CARLOS CARVALHO DE ALMEIDA&lt;/p&gt;&lt;/TD&gt;&lt;/p&gt;&lt;TR&gt;&lt;TD/&gt;&lt;TD&gt;&lt;p&gt;MINIST\xc3\x89RIO P\xc3\x9aBLICO DO DISTRITO FEDERAL E TERRIT\xc3\x93RIOS&lt;/p&gt;&lt;/TD&gt;&lt;/TR&gt;&lt;TR&gt;&lt;TD&gt;&lt;p&gt;&lt;LI&gt;&lt;A HREF=&quot;http://tjdf19.tjdft.jus.br/cgi-bin/tjcgi1?NXTPGM=plhtml06=INTER=20111210021073RSE&quot;&gt;&lt;p&gt;2011 12 1 002107-3 RSE&lt;br&gt;0002087-38.2011.807.0012 (Res.65 - CNJ)&lt;/br&gt;&lt;/p&gt;&lt;/A&gt;&lt;/LI&gt;&lt;TD&gt;&lt;p&gt;LUIZ CARLOS CARVALHO DE ALMEIDA&lt;/p&gt;&lt;/TD&gt;&lt;/p&gt;&lt;TR&gt;&lt;TD/&gt;&lt;TD&gt;&lt;p&gt;MINIST\xc3\x89RIO P\xc3\x9aBLICO DO DISTRITO FEDERAL E TERRIT\xc3\x93RIOS&lt;/p&gt;&lt;/TD&gt;&lt;/TR&gt;&lt;/TD&gt;\n&lt;hidden id=&quot;processo_1_1_1&quot; value=&quot;20111210021073APR&quot;/&gt;\n&lt;hidden id=&quot;vara_1_1&quot; value=&quot;3\xc2\xaa Turma Criminal&quot;/&gt;\n&lt;hidden id=&quot;classeProcessual_1_1_1&quot; value=&quot;Apela\xc3\xa7\xc3\xa3o Criminal&quot;/&gt;\n&lt;hidden id=&quot;autor_1_1_1&quot; value=&quot;LUIZ CARLOS CARVALHO DE ALMEIDA&quot;/&gt;\n&lt;hidden id=&quot;reu_1_1_1&quot; value=&quot;MINIST\xc3\x89RIO P\xc3\x9aBLICO DO DISTRITO FEDERAL E TERRIT\xc3\x93RIOS&quot;/&gt;\n&lt;hidden id=&quot;circunscricao_1_1_1&quot; value=&quot;1&quot;/&gt;\n&lt;hidden id=&quot;numeroCnj_1_1_1&quot; value=&quot;00020873820118070012&quot;/&gt;\n&lt;hidden id=&quot;segredoDeJustica_1_1_1&quot; value=&quot;N&quot;/&gt;\n&lt;hidden id=&quot;advogadosAutor_1_1_1&quot; value=&quot;CAIO TODD SILVA FREIRE#DF034397&quot;/&gt;\n&lt;hidden id=&quot;advogadosReu_1_1_1&quot; value=&quot;CARLOS GELIO ALVES DE SOUZA#DF013761&quot;/&gt;\n&lt;hidden id=&quot;competencia_1_1_1&quot; value=&quot;Criminal&quot;/&gt;\n&lt;hidden id=&quot;outrosAutores_1_1_1&quot; value=&quot;S&quot;/&gt;\n&lt;hidden id=&quot;outrosReus_1_1_1&quot; value=&quot;N&quot;/&gt;\n&lt;hidden id=&quot;processo_1_1_2&quot; value=&quot;20111210021073RSE&quot;/&gt;\n&lt;hidden id=&quot;vara_1_1&quot; value=&quot;3\xc2\xaa Turma Criminal&quot;/&gt;\n&lt;hidden id=&quot;classeProcessual_1_1_2&quot; value=&quot;Recurso em Sentido Estrito&quot;/&gt;\n&lt;hidden id=&quot;autor_1_1_2&quot; value=&quot;LUIZ CARLOS CARVALHO DE ALMEIDA&quot;/&gt;\n&lt;hidden id=&quot;reu_1_1_2&quot; value=&quot;MINIST\xc3\x89RIO P\xc3\x9aBLICO DO DISTRITO FEDERAL E TERRIT\xc3\x93RIOS&quot;/&gt;\n&lt;hidden id=&quot;circunscricao_1_1_2&quot; value=&quot;1&quot;/&gt;\n&lt;hidden id=&quot;numeroCnj_1_1_2&quot; value=&quot;00020873820118070012&quot;/&gt;\n&lt;hidden id=&quot;segredoDeJustica_1_1_2&quot; value=&quot;N&quot;/&gt;\n&lt;hidden id=&quot;advogadosAutor_1_1_2&quot; value=&quot;DEFENSORIA PUBLICA DO DISTRITO FEDERAL#DF050000&quot;/&gt;\n&lt;hidden id=&quot;advogadosReu_1_1_2&quot; value=&quot;&quot;/&gt;\n&lt;hidden id=&quot;competencia_1_1_2&quot; value=&quot;Criminal&quot;/&gt;\n&lt;hidden id=&quot;outrosAutores_1_1_2&quot; value=&quot;N&quot;/&gt;\n&lt;hidden id=&quot;outrosReus_1_1_2&quot; value=&quot;N&quot;/&gt;&lt;/TR&gt;&lt;/TD&gt;&lt;/TR&gt;&lt;/TABLE&gt;&lt;/body&gt;&lt;/head&gt;&lt;/html&gt;</div></td></tr></table></div>'
tRp185
sS'etype'
p186
S"<type 'exceptions.TypeError'>"
p187
sS'date'
p188
S'Sat Oct 19 21:32:44 2013'
p189
sS'response'
p190
g55
(S's\x0b\x17\x00\x00<div><table><tr><td style="font-weight:bold;vertical-align:top">body</td><td valign="top">:</td><td><div>&lt;cStringIO.StringO object at 0x3cb00d8&gt;</div></td></tr><tr><td style="font-weight:bold;vertical-align:top">cookies</td><td valign="top">:</td><td><div><table><tr><td style="font-weight:bold;vertical-align:top">session_id_tjdf</td><td valign="top">:</td><td><div>189.123.0.86-37d5fcf1-6497-452f-9ad7-111f242b4fcb<table><tr><td style="font-weight:bold;vertical-align:top">comment</td><td valign="top">:</td><td><div></div></td></tr><tr><td style="font-weight:bold;vertical-align:top">domain</td><td valign="top">:</td><td><div></div></td></tr><tr><td style="font-weight:bold;vertical-align:top">expires</td><td valign="top">:</td><td><div></div></td></tr><tr><td style="font-weight:bold;vertical-align:top">httponly</td><td valign="top">:</td><td><div></div></td></tr><tr><td style="font-weight:bold;vertical-align:top">max-age</td><td valign="top">:</td><td><div></div></td></tr><tr><td style="font-weight:bold;vertical-align:top">path</td><td valign="top">:</td><td><div>/</div></td></tr><tr><td style="font-weight:bold;vertical-align:top">secure</td><td valign="top">:</td><td><div></div></td></tr><tr><td style="font-weight:bold;vertical-align:top">version</td><td valign="top">:</td><td><div></div></td></tr></table></div></td></tr></table></div></td></tr><tr><td style="font-weight:bold;vertical-align:top">delimiters</td><td valign="top">:</td><td><div><table><tr><td><div>{{</div></td></tr><tr><td><div>}}</div></td></tr></table></div></td></tr><tr><td style="font-weight:bold;vertical-align:top">files</td><td valign="top">:</td><td><div><table></table></div></td></tr><tr><td style="font-weight:bold;vertical-align:top">flash</td><td valign="top">:</td><td><div>Success!</div></td></tr><tr><td style="font-weight:bold;vertical-align:top">generic_patterns</td><td valign="top">:</td><td><div><table></table></div></td></tr><tr><td style="font-weight:bold;vertical-align:top">google_analytics_id</td><td valign="top">:</td><td><div>None</div></td></tr><tr><td style="font-weight:bold;vertical-align:top">headers</td><td valign="top">:</td><td><div><table><tr><td style="font-weight:bold;vertical-align:top">X-Powered-By</td><td valign="top">:</td><td><div>web2py</div></td></tr></table></div></td></tr><tr><td style="font-weight:bold;vertical-align:top">logo</td><td valign="top">:</td><td><div><a class="brand" href="http://www.web2py.com/"><b>web<span>2</span>py</b>&trade;&nbsp;</a></div></td></tr><tr><td style="font-weight:bold;vertical-align:top">menu</td><td valign="top">:</td><td><div><table><tr><td><div><table><tr><td><div>Home</div></td></tr><tr><td><div>False</div></td></tr><tr><td><div>/tjdf/default/index</div></td></tr></table></div></td></tr><tr><td><div><table><tr><td><div>Cadastro</div></td></tr><tr><td><div>True</div></td></tr><tr><td><div>/tjdf/default/cadastro</div></td></tr></table></div></td></tr><tr><td><div><table><tr><td><div>Pesquisa</div></td></tr><tr><td><div>False</div></td></tr><tr><td><div>/tjdf/default/pesquisa</div></td></tr></table></div></td></tr></table></div></td></tr><tr><td style="font-weight:bold;vertical-align:top">meta</td><td valign="top">:</td><td><div><table><tr><td style="font-weight:bold;vertical-align:top">author</td><td valign="top">:</td><td><div>JPB &lt;you@example.com&gt;</div></td></tr><tr><td style="font-weight:bold;vertical-align:top">description</td><td valign="top">:</td><td><div>Utilizado para realizar o cadastro de processos</div></td></tr><tr><td style="font-weight:bold;vertical-align:top">generator</td><td valign="top">:</td><td><div>Web2py Web Framework</div></td></tr><tr><td style="font-weight:bold;vertical-align:top">keywords</td><td valign="top">:</td><td><div>web2py, python, framework</div></td></tr></table></div></td></tr><tr><td style="font-weight:bold;vertical-align:top">models_to_run</td><td valign="top">:</td><td><div><table><tr><td><div>^\\w+\\.py$</div></td></tr><tr><td><div>^default/\\w+\\.py$</div></td></tr><tr><td><div>^default/cadastro/\\w+\\.py$</div></td></tr></table></div></td></tr><tr><td style="font-weight:bold;vertical-align:top">postprocessing</td><td valign="top">:</td><td><div><table></table></div></td></tr><tr><td style="font-weight:bold;vertical-align:top">session_cookie_expires</td><td valign="top">:</td><td><div>None</div></td></tr><tr><td style="font-weight:bold;vertical-align:top">session_data_name</td><td valign="top">:</td><td><div>session_data_tjdf</div></td></tr><tr><td style="font-weight:bold;vertical-align:top">session_filename</td><td valign="top">:</td><td><div>/home/jbtte/web2py/applications/tjdf/sessions/189.123.0.86-37d5fcf1-6497-452f-9ad7-111f242b4fcb</div></td></tr><tr><td style="font-weight:bold;vertical-align:top">session_id</td><td valign="top">:</td><td><div>189.123.0.86-37d5fcf1-6497-452f-9ad7-111f242b4fcb</div></td></tr><tr><td style="font-weight:bold;vertical-align:top">session_id_name</td><td valign="top">:</td><td><div>session_id_tjdf</div></td></tr><tr><td style="font-weight:bold;vertical-align:top">session_locked</td><td valign="top">:</td><td><div>False</div></td></tr><tr><td style="font-weight:bold;vertical-align:top">session_new</td><td valign="top">:</td><td><div>False</div></td></tr><tr><td style="font-weight:bold;vertical-align:top">session_storage_type</td><td valign="top">:</td><td><div>file</div></td></tr><tr><td style="font-weight:bold;vertical-align:top">status</td><td valign="top">:</td><td><div>200</div></td></tr><tr><td style="font-weight:bold;vertical-align:top">subtitle</td><td valign="top">:</td><td><div>Cadastro de Processo</div></td></tr><tr><td style="font-weight:bold;vertical-align:top">title</td><td valign="top">:</td><td><div>Tjdf</div></td></tr><tr><td style="font-weight:bold;vertical-align:top">view</td><td valign="top">:</td><td><div>default/cadastro.html</div></td></tr></table></div>'
tRp191
sS'locals'
p192
(dp193
S'self'
p194
S'<lxml.etree.XMLParser object>'
p195
sS'base'
p196
S"<type 'lxml.etree.XMLParser'>"
p197
sS'proto'
p198
S'0'
sssS'traceback'
p199
S'Traceback (most recent call last):\n  File "/home/jbtte/web2py/gluon/main.py", line 606, in wsgibase\n    session._try_store_in_cookie_or_file(request, response)\n  File "/home/jbtte/web2py/gluon/globals.py", line 757, in _try_store_in_cookie_or_file\n    self._try_store_in_file(request, response)\n  File "/home/jbtte/web2py/gluon/globals.py", line 763, in _try_store_in_file\n    if not response.session_id or self._forget or self._unchanged():\n  File "/home/jbtte/web2py/gluon/globals.py", line 719, in _unchanged\n    session_pickled = cPickle.dumps(dict(self))\n  File "/usr/lib/python2.7/copy_reg.py", line 70, in _reduce_ex\n    raise TypeError, "can\'t pickle %s objects" % base.__name__\nTypeError: can\'t pickle XMLParser objects\n'
p200
s.